os.(*File).close STEXT dupok nosplit size=28 args=0x18 locals=0x0
	0x0000 00000 (<autogenerated>:1)	TEXT	os.(*File).close(SB), DUPOK|NOSPLIT|ABIInternal, $0-24
	0x0000 00000 (<autogenerated>:1)	FUNCDATA	$0, gclocals·e6397a44f8e1b6e77d0f200b4fba5269(SB)
	0x0000 00000 (<autogenerated>:1)	FUNCDATA	$1, gclocals·69c1753bd5f81501d95132d08af04464(SB)
	0x0000 00000 (<autogenerated>:1)	FUNCDATA	$2, gclocals·9fb7f0986f647f17cb53dda1484e0f7a(SB)
	0x0000 00000 (<autogenerated>:1)	PCDATA	$0, $0
	0x0000 00000 (<autogenerated>:1)	PCDATA	$1, $0
	0x0000 00000 (<autogenerated>:1)	XORPS	X0, X0
	0x0003 00003 (<autogenerated>:1)	MOVUPS	X0, "".~r0+16(SP)
	0x0008 00008 (<autogenerated>:1)	PCDATA	$0, $1
	0x0008 00008 (<autogenerated>:1)	PCDATA	$1, $1
	0x0008 00008 (<autogenerated>:1)	MOVQ	""..this+8(SP), AX
	0x000d 00013 (<autogenerated>:1)	TESTB	AL, (AX)
	0x000f 00015 (<autogenerated>:1)	MOVQ	(AX), AX
	0x0012 00018 (<autogenerated>:1)	PCDATA	$0, $0
	0x0012 00018 (<autogenerated>:1)	PCDATA	$1, $0
	0x0012 00018 (<autogenerated>:1)	MOVQ	AX, ""..this+8(SP)
	0x0017 00023 (<autogenerated>:1)	JMP	os.(*file).close(SB)
	0x0000 0f 57 c0 0f 11 44 24 10 48 8b 44 24 08 84 00 48  .W...D$.H.D$...H
	0x0010 8b 00 48 89 44 24 08 e9 00 00 00 00              ..H.D$......
	rel 24+4 t=8 os.(*file).close+0
"".(*rot13Reader).Read STEXT dupok size=343 args=0x38 locals=0x88
	0x0000 00000 (<autogenerated>:1)	TEXT	"".(*rot13Reader).Read(SB), DUPOK|WRAPPER|ABIInternal, $136-56
	0x0000 00000 (<autogenerated>:1)	MOVQ	(TLS), CX
	0x0009 00009 (<autogenerated>:1)	LEAQ	-8(SP), AX
	0x000e 00014 (<autogenerated>:1)	CMPQ	AX, 16(CX)
	0x0012 00018 (<autogenerated>:1)	JLS	308
	0x0018 00024 (<autogenerated>:1)	SUBQ	$136, SP
	0x001f 00031 (<autogenerated>:1)	MOVQ	BP, 128(SP)
	0x0027 00039 (<autogenerated>:1)	LEAQ	128(SP), BP
	0x002f 00047 (<autogenerated>:1)	MOVQ	32(CX), BX
	0x0033 00051 (<autogenerated>:1)	TESTQ	BX, BX
	0x0036 00054 (<autogenerated>:1)	JNE	318
	0x003c 00060 (<autogenerated>:1)	NOP
	0x003c 00060 (<autogenerated>:1)	FUNCDATA	$0, gclocals·088d5bd83c3e035221d51d44b05906ec(SB)
	0x003c 00060 (<autogenerated>:1)	FUNCDATA	$1, gclocals·4303497f0013a43067d234d0dfa34051(SB)
	0x003c 00060 (<autogenerated>:1)	FUNCDATA	$2, gclocals·0467cf7c958da2c4871f143640c96a1c(SB)
	0x003c 00060 (<autogenerated>:1)	PCDATA	$0, $0
	0x003c 00060 (<autogenerated>:1)	PCDATA	$1, $0
	0x003c 00060 (<autogenerated>:1)	MOVQ	$0, "".n+176(SP)
	0x0048 00072 (<autogenerated>:1)	XORPS	X0, X0
	0x004b 00075 (<autogenerated>:1)	MOVUPS	X0, "".err+184(SP)
	0x0053 00083 (<autogenerated>:1)	CMPQ	""..this+144(SP), $0
	0x005c 00092 (<autogenerated>:1)	JNE	99
	0x005e 00094 (<autogenerated>:1)	JMP	302
	0x0063 00099 (<autogenerated>:1)	XORPS	X0, X0
	0x0066 00102 (<autogenerated>:1)	MOVUPS	X0, ""..autotmp_7+96(SP)
	0x006b 00107 (<autogenerated>:1)	PCDATA	$0, $1
	0x006b 00107 (<autogenerated>:1)	PCDATA	$1, $1
	0x006b 00107 (<autogenerated>:1)	MOVQ	""..this+144(SP), AX
	0x0073 00115 (<autogenerated>:1)	TESTB	AL, (AX)
	0x0075 00117 (<autogenerated>:1)	MOVQ	(AX), CX
	0x0078 00120 (<autogenerated>:1)	MOVQ	8(AX), AX
	0x007c 00124 (<autogenerated>:1)	MOVQ	CX, ""..autotmp_8+80(SP)
	0x0081 00129 (<autogenerated>:1)	MOVQ	AX, ""..autotmp_8+88(SP)
	0x0086 00134 (<autogenerated>:1)	MOVQ	CX, (SP)
	0x008a 00138 (<autogenerated>:1)	PCDATA	$0, $0
	0x008a 00138 (<autogenerated>:1)	MOVQ	AX, 8(SP)
	0x008f 00143 (<autogenerated>:1)	MOVQ	"".p+168(SP), AX
	0x0097 00151 (<autogenerated>:1)	MOVQ	"".p+160(SP), CX
	0x009f 00159 (<autogenerated>:1)	PCDATA	$0, $2
	0x009f 00159 (<autogenerated>:1)	PCDATA	$1, $2
	0x009f 00159 (<autogenerated>:1)	MOVQ	"".p+152(SP), DX
	0x00a7 00167 (<autogenerated>:1)	PCDATA	$0, $0
	0x00a7 00167 (<autogenerated>:1)	MOVQ	DX, 16(SP)
	0x00ac 00172 (<autogenerated>:1)	MOVQ	CX, 24(SP)
	0x00b1 00177 (<autogenerated>:1)	MOVQ	AX, 32(SP)
	0x00b6 00182 (<autogenerated>:1)	CALL	"".rot13Reader.Read(SB)
	0x00bb 00187 (<autogenerated>:1)	MOVQ	40(SP), AX
	0x00c0 00192 (<autogenerated>:1)	MOVQ	AX, ""..autotmp_6+64(SP)
	0x00c5 00197 (<autogenerated>:1)	MOVQ	48(SP), AX
	0x00ca 00202 (<autogenerated>:1)	PCDATA	$0, $3
	0x00ca 00202 (<autogenerated>:1)	MOVQ	56(SP), CX
	0x00cf 00207 (<autogenerated>:1)	PCDATA	$1, $3
	0x00cf 00207 (<autogenerated>:1)	MOVQ	AX, ""..autotmp_7+96(SP)
	0x00d4 00212 (<autogenerated>:1)	PCDATA	$0, $0
	0x00d4 00212 (<autogenerated>:1)	MOVQ	CX, ""..autotmp_7+104(SP)
	0x00d9 00217 (<autogenerated>:1)	MOVQ	""..autotmp_6+64(SP), AX
	0x00de 00222 (<autogenerated>:1)	MOVQ	AX, ""..autotmp_4+72(SP)
	0x00e3 00227 (<autogenerated>:1)	MOVQ	""..autotmp_7+96(SP), AX
	0x00e8 00232 (<autogenerated>:1)	PCDATA	$0, $3
	0x00e8 00232 (<autogenerated>:1)	PCDATA	$1, $2
	0x00e8 00232 (<autogenerated>:1)	MOVQ	""..autotmp_7+104(SP), CX
	0x00ed 00237 (<autogenerated>:1)	PCDATA	$1, $4
	0x00ed 00237 (<autogenerated>:1)	MOVQ	AX, ""..autotmp_5+112(SP)
	0x00f2 00242 (<autogenerated>:1)	PCDATA	$0, $0
	0x00f2 00242 (<autogenerated>:1)	MOVQ	CX, ""..autotmp_5+120(SP)
	0x00f7 00247 (<autogenerated>:1)	MOVQ	""..autotmp_4+72(SP), AX
	0x00fc 00252 (<autogenerated>:1)	MOVQ	AX, "".n+176(SP)
	0x0104 00260 (<autogenerated>:1)	MOVQ	""..autotmp_5+112(SP), AX
	0x0109 00265 (<autogenerated>:1)	PCDATA	$0, $3
	0x0109 00265 (<autogenerated>:1)	PCDATA	$1, $2
	0x0109 00265 (<autogenerated>:1)	MOVQ	""..autotmp_5+120(SP), CX
	0x010e 00270 (<autogenerated>:1)	PCDATA	$1, $5
	0x010e 00270 (<autogenerated>:1)	MOVQ	AX, "".err+184(SP)
	0x0116 00278 (<autogenerated>:1)	PCDATA	$0, $0
	0x0116 00278 (<autogenerated>:1)	MOVQ	CX, "".err+192(SP)
	0x011e 00286 (<autogenerated>:1)	MOVQ	128(SP), BP
	0x0126 00294 (<autogenerated>:1)	ADDQ	$136, SP
	0x012d 00301 (<autogenerated>:1)	RET
	0x012e 00302 (<autogenerated>:1)	PCDATA	$1, $2
	0x012e 00302 (<autogenerated>:1)	CALL	runtime.panicwrap(SB)
	0x0133 00307 (<autogenerated>:1)	XCHGL	AX, AX
	0x0134 00308 (<autogenerated>:1)	NOP
	0x0134 00308 (<autogenerated>:1)	PCDATA	$1, $-1
	0x0134 00308 (<autogenerated>:1)	PCDATA	$0, $-1
	0x0134 00308 (<autogenerated>:1)	CALL	runtime.morestack_noctxt(SB)
	0x0139 00313 (<autogenerated>:1)	JMP	0
	0x013e 00318 (<autogenerated>:1)	LEAQ	144(SP), DI
	0x0146 00326 (<autogenerated>:1)	CMPQ	(BX), DI
	0x0149 00329 (<autogenerated>:1)	JNE	60
	0x014f 00335 (<autogenerated>:1)	MOVQ	SP, (BX)
	0x0152 00338 (<autogenerated>:1)	JMP	60
	0x0000 65 48 8b 0c 25 00 00 00 00 48 8d 44 24 f8 48 3b  eH..%....H.D$.H;
	0x0010 41 10 0f 86 1c 01 00 00 48 81 ec 88 00 00 00 48  A.......H......H
	0x0020 89 ac 24 80 00 00 00 48 8d ac 24 80 00 00 00 48  ..$....H..$....H
	0x0030 8b 59 20 48 85 db 0f 85 02 01 00 00 48 c7 84 24  .Y H........H..$
	0x0040 b0 00 00 00 00 00 00 00 0f 57 c0 0f 11 84 24 b8  .........W....$.
	0x0050 00 00 00 48 83 bc 24 90 00 00 00 00 75 05 e9 cb  ...H..$.....u...
	0x0060 00 00 00 0f 57 c0 0f 11 44 24 60 48 8b 84 24 90  ....W...D$`H..$.
	0x0070 00 00 00 84 00 48 8b 08 48 8b 40 08 48 89 4c 24  .....H..H.@.H.L$
	0x0080 50 48 89 44 24 58 48 89 0c 24 48 89 44 24 08 48  PH.D$XH..$H.D$.H
	0x0090 8b 84 24 a8 00 00 00 48 8b 8c 24 a0 00 00 00 48  ..$....H..$....H
	0x00a0 8b 94 24 98 00 00 00 48 89 54 24 10 48 89 4c 24  ..$....H.T$.H.L$
	0x00b0 18 48 89 44 24 20 e8 00 00 00 00 48 8b 44 24 28  .H.D$ .....H.D$(
	0x00c0 48 89 44 24 40 48 8b 44 24 30 48 8b 4c 24 38 48  H.D$@H.D$0H.L$8H
	0x00d0 89 44 24 60 48 89 4c 24 68 48 8b 44 24 40 48 89  .D$`H.L$hH.D$@H.
	0x00e0 44 24 48 48 8b 44 24 60 48 8b 4c 24 68 48 89 44  D$HH.D$`H.L$hH.D
	0x00f0 24 70 48 89 4c 24 78 48 8b 44 24 48 48 89 84 24  $pH.L$xH.D$HH..$
	0x0100 b0 00 00 00 48 8b 44 24 70 48 8b 4c 24 78 48 89  ....H.D$pH.L$xH.
	0x0110 84 24 b8 00 00 00 48 89 8c 24 c0 00 00 00 48 8b  .$....H..$....H.
	0x0120 ac 24 80 00 00 00 48 81 c4 88 00 00 00 c3 e8 00  .$....H.........
	0x0130 00 00 00 90 e8 00 00 00 00 e9 c2 fe ff ff 48 8d  ..............H.
	0x0140 bc 24 90 00 00 00 48 39 3b 0f 85 ed fe ff ff 48  .$....H9;......H
	0x0150 89 23 e9 e5 fe ff ff                             .#.....
	rel 5+4 t=16 TLS+0
	rel 183+4 t=8 "".rot13Reader.Read+0
	rel 303+4 t=8 runtime.panicwrap+0
	rel 309+4 t=8 runtime.morestack_noctxt+0
"".rot13Reader.Read STEXT size=725 args=0x40 locals=0x68
	0x0000 00000 (test.go:47)	TEXT	"".rot13Reader.Read(SB), ABIInternal, $104-64
	0x0000 00000 (test.go:47)	MOVQ	(TLS), CX
	0x0009 00009 (test.go:47)	CMPQ	SP, 16(CX)
	0x000d 00013 (test.go:47)	JLS	715
	0x0013 00019 (test.go:47)	SUBQ	$104, SP
	0x0017 00023 (test.go:47)	MOVQ	BP, 96(SP)
	0x001c 00028 (test.go:47)	LEAQ	96(SP), BP
	0x0021 00033 (test.go:47)	FUNCDATA	$0, gclocals·ee8761d1a6407ef9cacf0dda57e5b257(SB)
	0x0021 00033 (test.go:47)	FUNCDATA	$1, gclocals·77ef016692b196776c0a53ed33945115(SB)
	0x0021 00033 (test.go:47)	FUNCDATA	$2, gclocals·d683c32a9776065f0543c82fb4cd6575(SB)
	0x0021 00033 (test.go:47)	PCDATA	$0, $0
	0x0021 00033 (test.go:47)	PCDATA	$1, $0
	0x0021 00033 (test.go:47)	MOVQ	$0, "".n+152(SP)
	0x002d 00045 (test.go:47)	XORPS	X0, X0
	0x0030 00048 (test.go:47)	MOVUPS	X0, "".err+160(SP)
	0x0038 00056 (test.go:48)	XORPS	X0, X0
	0x003b 00059 (test.go:48)	MOVUPS	X0, ""..autotmp_6+80(SP)
	0x0040 00064 (test.go:48)	MOVQ	"".rot+112(SP), AX
	0x0045 00069 (test.go:48)	TESTB	AL, (AX)
	0x0047 00071 (test.go:48)	PCDATA	$0, $1
	0x0047 00071 (test.go:48)	PCDATA	$1, $1
	0x0047 00071 (test.go:48)	MOVQ	"".rot+120(SP), CX
	0x004c 00076 (test.go:48)	MOVQ	24(AX), AX
	0x0050 00080 (test.go:48)	PCDATA	$0, $0
	0x0050 00080 (test.go:48)	MOVQ	CX, (SP)
	0x0054 00084 (test.go:48)	MOVQ	"".p+144(SP), CX
	0x005c 00092 (test.go:48)	MOVQ	"".p+136(SP), DX
	0x0064 00100 (test.go:48)	PCDATA	$0, $2
	0x0064 00100 (test.go:48)	MOVQ	"".p+128(SP), BX
	0x006c 00108 (test.go:48)	PCDATA	$0, $0
	0x006c 00108 (test.go:48)	MOVQ	BX, 8(SP)
	0x0071 00113 (test.go:48)	MOVQ	DX, 16(SP)
	0x0076 00118 (test.go:48)	MOVQ	CX, 24(SP)
	0x007b 00123 (test.go:48)	CALL	AX
	0x007d 00125 (test.go:48)	MOVQ	32(SP), AX
	0x0082 00130 (test.go:48)	MOVQ	AX, ""..autotmp_5+72(SP)
	0x0087 00135 (test.go:48)	MOVQ	40(SP), AX
	0x008c 00140 (test.go:48)	PCDATA	$0, $1
	0x008c 00140 (test.go:48)	MOVQ	48(SP), CX
	0x0091 00145 (test.go:48)	PCDATA	$1, $2
	0x0091 00145 (test.go:48)	MOVQ	AX, ""..autotmp_6+80(SP)
	0x0096 00150 (test.go:48)	PCDATA	$0, $0
	0x0096 00150 (test.go:48)	MOVQ	CX, ""..autotmp_6+88(SP)
	0x009b 00155 (test.go:48)	MOVQ	""..autotmp_5+72(SP), AX
	0x00a0 00160 (test.go:48)	MOVQ	AX, "".n+152(SP)
	0x00a8 00168 (test.go:48)	PCDATA	$0, $3
	0x00a8 00168 (test.go:48)	MOVQ	""..autotmp_6+88(SP), AX
	0x00ad 00173 (test.go:48)	PCDATA	$1, $1
	0x00ad 00173 (test.go:48)	MOVQ	""..autotmp_6+80(SP), CX
	0x00b2 00178 (test.go:48)	PCDATA	$1, $3
	0x00b2 00178 (test.go:48)	MOVQ	CX, "".err+160(SP)
	0x00ba 00186 (test.go:48)	PCDATA	$0, $0
	0x00ba 00186 (test.go:48)	MOVQ	AX, "".err+168(SP)
	0x00c2 00194 (test.go:49)	MOVQ	$0, "".i+64(SP)
	0x00cb 00203 (test.go:49)	JMP	205
	0x00cd 00205 (test.go:49)	MOVQ	"".p+136(SP), DX
	0x00d5 00213 (test.go:49)	MOVQ	DX, ""..autotmp_5+72(SP)
	0x00da 00218 (test.go:49)	CMPQ	"".i+64(SP), DX
	0x00df 00223 (test.go:49)	JLT	230
	0x00e1 00225 (test.go:49)	JMP	658
	0x00e6 00230 (test.go:50)	MOVQ	"".i+64(SP), AX
	0x00eb 00235 (test.go:50)	PCDATA	$0, $4
	0x00eb 00235 (test.go:50)	MOVQ	"".p+128(SP), DX
	0x00f3 00243 (test.go:50)	MOVQ	"".p+136(SP), CX
	0x00fb 00251 (test.go:50)	CMPQ	AX, CX
	0x00fe 00254 (test.go:50)	JCS	261
	0x0100 00256 (test.go:50)	JMP	709
	0x0105 00261 (test.go:50)	PCDATA	$0, $0
	0x0105 00261 (test.go:50)	MOVBLZX	(DX)(AX*1), DX
	0x0109 00265 (test.go:50)	CMPB	DL, $65
	0x010c 00268 (test.go:50)	SETCC	DL
	0x010f 00271 (test.go:50)	MOVB	DL, ""..autotmp_7+63(SP)
	0x0113 00275 (test.go:50)	JCC	282
	0x0115 00277 (test.go:50)	JMP	653
	0x011a 00282 (test.go:50)	MOVQ	"".p+136(SP), CX
	0x0122 00290 (test.go:50)	MOVQ	"".i+64(SP), AX
	0x0127 00295 (test.go:50)	PCDATA	$0, $4
	0x0127 00295 (test.go:50)	MOVQ	"".p+128(SP), DX
	0x012f 00303 (test.go:50)	CMPQ	AX, CX
	0x0132 00306 (test.go:50)	JCS	313
	0x0134 00308 (test.go:50)	JMP	704
	0x0139 00313 (test.go:50)	PCDATA	$0, $0
	0x0139 00313 (test.go:50)	MOVBLZX	(DX)(AX*1), DX
	0x013d 00317 (test.go:50)	CMPB	DL, $90
	0x0140 00320 (test.go:50)	SETCS	""..autotmp_7+63(SP)
	0x0145 00325 (test.go:50)	JMP	327
	0x0147 00327 (test.go:50)	CMPB	""..autotmp_7+63(SP), $0
	0x014c 00332 (test.go:50)	JNE	336
	0x014e 00334 (test.go:50)	JMP	450
	0x0150 00336 (test.go:51)	MOVQ	"".i+64(SP), AX
	0x0155 00341 (test.go:51)	PCDATA	$0, $4
	0x0155 00341 (test.go:51)	MOVQ	"".p+128(SP), DX
	0x015d 00349 (test.go:51)	MOVQ	"".p+136(SP), CX
	0x0165 00357 (test.go:51)	CMPQ	AX, CX
	0x0168 00360 (test.go:51)	JCS	367
	0x016a 00362 (test.go:51)	JMP	699
	0x016f 00367 (test.go:51)	MOVQ	"".i+64(SP), BX
	0x0174 00372 (test.go:51)	PCDATA	$0, $5
	0x0174 00372 (test.go:51)	MOVQ	"".p+128(SP), SI
	0x017c 00380 (test.go:51)	MOVQ	"".p+136(SP), CX
	0x0184 00388 (test.go:51)	PCDATA	$0, $6
	0x0184 00388 (test.go:51)	MOVBLZX	(DX)(AX*1), DX
	0x0188 00392 (test.go:51)	ADDL	$-52, DX
	0x018b 00395 (test.go:51)	MOVBLZX	DL, DI
	0x018e 00398 (test.go:51)	IMUL3L	$316, DI, DI
	0x0194 00404 (test.go:51)	SHRL	$13, DI
	0x0197 00407 (test.go:51)	IMUL3L	$26, DI, DI
	0x019a 00410 (test.go:51)	SUBL	DI, DX
	0x019c 00412 (test.go:51)	ADDL	$65, DX
	0x019f 00415 (test.go:51)	CMPQ	BX, CX
	0x01a2 00418 (test.go:51)	JCS	425
	0x01a4 00420 (test.go:51)	JMP	691
	0x01a9 00425 (test.go:51)	PCDATA	$0, $0
	0x01a9 00425 (test.go:51)	MOVB	DL, (SI)(BX*1)
	0x01ac 00428 (test.go:51)	JMP	430
	0x01ae 00430 (test.go:49)	PCDATA	$0, $-2
	0x01ae 00430 (test.go:49)	PCDATA	$1, $-2
	0x01ae 00430 (test.go:49)	JMP	432
	0x01b0 00432 (test.go:49)	PCDATA	$0, $0
	0x01b0 00432 (test.go:49)	PCDATA	$1, $3
	0x01b0 00432 (test.go:49)	MOVQ	"".i+64(SP), DX
	0x01b5 00437 (test.go:49)	INCQ	DX
	0x01b8 00440 (test.go:49)	MOVQ	DX, "".i+64(SP)
	0x01bd 00445 (test.go:49)	JMP	205
	0x01c2 00450 (test.go:52)	MOVQ	"".i+64(SP), AX
	0x01c7 00455 (test.go:52)	PCDATA	$0, $4
	0x01c7 00455 (test.go:52)	MOVQ	"".p+128(SP), DX
	0x01cf 00463 (test.go:52)	MOVQ	"".p+136(SP), CX
	0x01d7 00471 (test.go:52)	CMPQ	AX, CX
	0x01da 00474 (test.go:52)	JCS	481
	0x01dc 00476 (test.go:52)	JMP	686
	0x01e1 00481 (test.go:52)	PCDATA	$0, $0
	0x01e1 00481 (test.go:52)	MOVBLZX	(DX)(AX*1), DX
	0x01e5 00485 (test.go:52)	CMPB	DL, $97
	0x01e8 00488 (test.go:52)	SETCC	DL
	0x01eb 00491 (test.go:52)	MOVB	DL, ""..autotmp_7+63(SP)
	0x01ef 00495 (test.go:52)	JCC	502
	0x01f1 00497 (test.go:52)	JMP	651
	0x01f6 00502 (test.go:52)	MOVQ	"".i+64(SP), AX
	0x01fb 00507 (test.go:52)	PCDATA	$0, $4
	0x01fb 00507 (test.go:52)	MOVQ	"".p+128(SP), DX
	0x0203 00515 (test.go:52)	MOVQ	"".p+136(SP), CX
	0x020b 00523 (test.go:52)	CMPQ	AX, CX
	0x020e 00526 (test.go:52)	JCS	533
	0x0210 00528 (test.go:52)	JMP	681
	0x0215 00533 (test.go:52)	PCDATA	$0, $0
	0x0215 00533 (test.go:52)	MOVBLZX	(DX)(AX*1), DX
	0x0219 00537 (test.go:52)	CMPB	DL, $122
	0x021c 00540 (test.go:52)	SETLS	""..autotmp_7+63(SP)
	0x0221 00545 (test.go:52)	JMP	547
	0x0223 00547 (test.go:52)	CMPB	""..autotmp_7+63(SP), $0
	0x0228 00552 (test.go:52)	JNE	556
	0x022a 00554 (test.go:52)	JMP	649
	0x022c 00556 (test.go:53)	MOVQ	"".i+64(SP), AX
	0x0231 00561 (test.go:53)	PCDATA	$0, $4
	0x0231 00561 (test.go:53)	MOVQ	"".p+128(SP), DX
	0x0239 00569 (test.go:53)	MOVQ	"".p+136(SP), CX
	0x0241 00577 (test.go:53)	CMPQ	AX, CX
	0x0244 00580 (test.go:53)	JCS	584
	0x0246 00582 (test.go:53)	JMP	676
	0x0248 00584 (test.go:53)	MOVQ	"".i+64(SP), BX
	0x024d 00589 (test.go:53)	PCDATA	$0, $5
	0x024d 00589 (test.go:53)	MOVQ	"".p+128(SP), SI
	0x0255 00597 (test.go:53)	MOVQ	"".p+136(SP), CX
	0x025d 00605 (test.go:53)	PCDATA	$0, $6
	0x025d 00605 (test.go:53)	MOVBLZX	(DX)(AX*1), DX
	0x0261 00609 (test.go:53)	ADDL	$-84, DX
	0x0264 00612 (test.go:53)	MOVBLZX	DL, DI
	0x0267 00615 (test.go:53)	IMUL3L	$316, DI, DI
	0x026d 00621 (test.go:53)	SHRL	$13, DI
	0x0270 00624 (test.go:53)	IMUL3L	$26, DI, DI
	0x0273 00627 (test.go:53)	SUBL	DI, DX
	0x0275 00629 (test.go:53)	ADDL	$97, DX
	0x0278 00632 (test.go:53)	CMPQ	BX, CX
	0x027b 00635 (test.go:53)	JCS	639
	0x027d 00637 (test.go:53)	JMP	668
	0x027f 00639 (test.go:53)	PCDATA	$0, $0
	0x027f 00639 (test.go:53)	MOVB	DL, (SI)(BX*1)
	0x0282 00642 (test.go:53)	JMP	644
	0x0284 00644 (test.go:49)	PCDATA	$0, $-2
	0x0284 00644 (test.go:49)	PCDATA	$1, $-2
	0x0284 00644 (test.go:49)	JMP	430
	0x0289 00649 (test.go:49)	PCDATA	$0, $0
	0x0289 00649 (test.go:49)	PCDATA	$1, $3
	0x0289 00649 (test.go:49)	JMP	644
	0x028b 00651 (test.go:52)	PCDATA	$0, $-2
	0x028b 00651 (test.go:52)	PCDATA	$1, $-2
	0x028b 00651 (test.go:52)	JMP	547
	0x028d 00653 (test.go:50)	JMP	327
	0x0292 00658 (test.go:56)	PCDATA	$0, $0
	0x0292 00658 (test.go:56)	PCDATA	$1, $4
	0x0292 00658 (test.go:56)	MOVQ	96(SP), BP
	0x0297 00663 (test.go:56)	ADDQ	$104, SP
	0x029b 00667 (test.go:56)	RET
	0x029c 00668 (test.go:53)	PCDATA	$1, $5
	0x029c 00668 (test.go:53)	MOVQ	BX, AX
	0x029f 00671 (test.go:53)	CALL	runtime.panicIndex(SB)
	0x02a4 00676 (test.go:53)	CALL	runtime.panicIndex(SB)
	0x02a9 00681 (test.go:52)	CALL	runtime.panicIndex(SB)
	0x02ae 00686 (test.go:52)	CALL	runtime.panicIndex(SB)
	0x02b3 00691 (test.go:51)	MOVQ	BX, AX
	0x02b6 00694 (test.go:51)	CALL	runtime.panicIndex(SB)
	0x02bb 00699 (test.go:51)	CALL	runtime.panicIndex(SB)
	0x02c0 00704 (test.go:50)	CALL	runtime.panicIndex(SB)
	0x02c5 00709 (test.go:50)	CALL	runtime.panicIndex(SB)
	0x02ca 00714 (test.go:50)	XCHGL	AX, AX
	0x02cb 00715 (test.go:50)	NOP
	0x02cb 00715 (test.go:47)	PCDATA	$1, $-1
	0x02cb 00715 (test.go:47)	PCDATA	$0, $-1
	0x02cb 00715 (test.go:47)	CALL	runtime.morestack_noctxt(SB)
	0x02d0 00720 (test.go:47)	JMP	0
	0x0000 65 48 8b 0c 25 00 00 00 00 48 3b 61 10 0f 86 b8  eH..%....H;a....
	0x0010 02 00 00 48 83 ec 68 48 89 6c 24 60 48 8d 6c 24  ...H..hH.l$`H.l$
	0x0020 60 48 c7 84 24 98 00 00 00 00 00 00 00 0f 57 c0  `H..$.........W.
	0x0030 0f 11 84 24 a0 00 00 00 0f 57 c0 0f 11 44 24 50  ...$.....W...D$P
	0x0040 48 8b 44 24 70 84 00 48 8b 4c 24 78 48 8b 40 18  H.D$p..H.L$xH.@.
	0x0050 48 89 0c 24 48 8b 8c 24 90 00 00 00 48 8b 94 24  H..$H..$....H..$
	0x0060 88 00 00 00 48 8b 9c 24 80 00 00 00 48 89 5c 24  ....H..$....H.\$
	0x0070 08 48 89 54 24 10 48 89 4c 24 18 ff d0 48 8b 44  .H.T$.H.L$...H.D
	0x0080 24 20 48 89 44 24 48 48 8b 44 24 28 48 8b 4c 24  $ H.D$HH.D$(H.L$
	0x0090 30 48 89 44 24 50 48 89 4c 24 58 48 8b 44 24 48  0H.D$PH.L$XH.D$H
	0x00a0 48 89 84 24 98 00 00 00 48 8b 44 24 58 48 8b 4c  H..$....H.D$XH.L
	0x00b0 24 50 48 89 8c 24 a0 00 00 00 48 89 84 24 a8 00  $PH..$....H..$..
	0x00c0 00 00 48 c7 44 24 40 00 00 00 00 eb 00 48 8b 94  ..H.D$@......H..
	0x00d0 24 88 00 00 00 48 89 54 24 48 48 39 54 24 40 7c  $....H.T$HH9T$@|
	0x00e0 05 e9 ac 01 00 00 48 8b 44 24 40 48 8b 94 24 80  ......H.D$@H..$.
	0x00f0 00 00 00 48 8b 8c 24 88 00 00 00 48 39 c8 72 05  ...H..$....H9.r.
	0x0100 e9 c0 01 00 00 0f b6 14 02 80 fa 41 0f 93 c2 88  ...........A....
	0x0110 54 24 3f 73 05 e9 73 01 00 00 48 8b 8c 24 88 00  T$?s..s...H..$..
	0x0120 00 00 48 8b 44 24 40 48 8b 94 24 80 00 00 00 48  ..H.D$@H..$....H
	0x0130 39 c8 72 05 e9 87 01 00 00 0f b6 14 02 80 fa 5a  9.r............Z
	0x0140 0f 92 44 24 3f eb 00 80 7c 24 3f 00 75 02 eb 72  ..D$?...|$?.u..r
	0x0150 48 8b 44 24 40 48 8b 94 24 80 00 00 00 48 8b 8c  H.D$@H..$....H..
	0x0160 24 88 00 00 00 48 39 c8 72 05 e9 4c 01 00 00 48  $....H9.r..L...H
	0x0170 8b 5c 24 40 48 8b b4 24 80 00 00 00 48 8b 8c 24  .\$@H..$....H..$
	0x0180 88 00 00 00 0f b6 14 02 83 c2 cc 0f b6 fa 69 ff  ..............i.
	0x0190 3c 01 00 00 c1 ef 0d 6b ff 1a 29 fa 83 c2 41 48  <......k..)...AH
	0x01a0 39 cb 72 05 e9 0a 01 00 00 88 14 1e eb 00 eb 00  9.r.............
	0x01b0 48 8b 54 24 40 48 ff c2 48 89 54 24 40 e9 0b ff  H.T$@H..H.T$@...
	0x01c0 ff ff 48 8b 44 24 40 48 8b 94 24 80 00 00 00 48  ..H.D$@H..$....H
	0x01d0 8b 8c 24 88 00 00 00 48 39 c8 72 05 e9 cd 00 00  ..$....H9.r.....
	0x01e0 00 0f b6 14 02 80 fa 61 0f 93 c2 88 54 24 3f 73  .......a....T$?s
	0x01f0 05 e9 95 00 00 00 48 8b 44 24 40 48 8b 94 24 80  ......H.D$@H..$.
	0x0200 00 00 00 48 8b 8c 24 88 00 00 00 48 39 c8 72 05  ...H..$....H9.r.
	0x0210 e9 94 00 00 00 0f b6 14 02 80 fa 7a 0f 96 44 24  ...........z..D$
	0x0220 3f eb 00 80 7c 24 3f 00 75 02 eb 5d 48 8b 44 24  ?...|$?.u..]H.D$
	0x0230 40 48 8b 94 24 80 00 00 00 48 8b 8c 24 88 00 00  @H..$....H..$...
	0x0240 00 48 39 c8 72 02 eb 5c 48 8b 5c 24 40 48 8b b4  .H9.r..\H.\$@H..
	0x0250 24 80 00 00 00 48 8b 8c 24 88 00 00 00 0f b6 14  $....H..$.......
	0x0260 02 83 c2 ac 0f b6 fa 69 ff 3c 01 00 00 c1 ef 0d  .......i.<......
	0x0270 6b ff 1a 29 fa 83 c2 61 48 39 cb 72 02 eb 1d 88  k..)...aH9.r....
	0x0280 14 1e eb 00 e9 25 ff ff ff eb f9 eb 96 e9 b5 fe  .....%..........
	0x0290 ff ff 48 8b 6c 24 60 48 83 c4 68 c3 48 89 d8 e8  ..H.l$`H..h.H...
	0x02a0 00 00 00 00 e8 00 00 00 00 e8 00 00 00 00 e8 00  ................
	0x02b0 00 00 00 48 89 d8 e8 00 00 00 00 e8 00 00 00 00  ...H............
	0x02c0 e8 00 00 00 00 e8 00 00 00 00 90 e8 00 00 00 00  ................
	0x02d0 e9 2b fd ff ff                                   .+...
	rel 5+4 t=16 TLS+0
	rel 123+0 t=11 +0
	rel 672+4 t=8 runtime.panicIndex+0
	rel 677+4 t=8 runtime.panicIndex+0
	rel 682+4 t=8 runtime.panicIndex+0
	rel 687+4 t=8 runtime.panicIndex+0
	rel 695+4 t=8 runtime.panicIndex+0
	rel 700+4 t=8 runtime.panicIndex+0
	rel 705+4 t=8 runtime.panicIndex+0
	rel 710+4 t=8 runtime.panicIndex+0
	rel 716+4 t=8 runtime.morestack_noctxt+0
"".main STEXT size=245 args=0x0 locals=0x70
	0x0000 00000 (test.go:58)	TEXT	"".main(SB), ABIInternal, $112-0
	0x0000 00000 (test.go:58)	MOVQ	(TLS), CX
	0x0009 00009 (test.go:58)	CMPQ	SP, 16(CX)
	0x000d 00013 (test.go:58)	JLS	235
	0x0013 00019 (test.go:58)	SUBQ	$112, SP
	0x0017 00023 (test.go:58)	MOVQ	BP, 104(SP)
	0x001c 00028 (test.go:58)	LEAQ	104(SP), BP
	0x0021 00033 (test.go:58)	FUNCDATA	$0, gclocals·3e27b3aa6b89137cce48b3379a2a6610(SB)
	0x0021 00033 (test.go:58)	FUNCDATA	$1, gclocals·c4d88466129474bbdba2a1851c779d45(SB)
	0x0021 00033 (test.go:58)	FUNCDATA	$2, gclocals·9d74269ff04bfd0ad3f55e2fd078ea82(SB)
	0x0021 00033 (test.go:59)	PCDATA	$0, $1
	0x0021 00033 (test.go:59)	PCDATA	$1, $0
	0x0021 00033 (test.go:59)	LEAQ	go.string."Lbh penpxrq gur pbqr!"(SB), AX
	0x0028 00040 (test.go:59)	PCDATA	$0, $0
	0x0028 00040 (test.go:59)	MOVQ	AX, (SP)
	0x002c 00044 (test.go:59)	MOVQ	$21, 8(SP)
	0x0035 00053 (test.go:59)	CALL	strings.NewReader(SB)
	0x003a 00058 (test.go:59)	PCDATA	$0, $1
	0x003a 00058 (test.go:59)	MOVQ	16(SP), AX
	0x003f 00063 (test.go:59)	PCDATA	$0, $0
	0x003f 00063 (test.go:59)	PCDATA	$1, $1
	0x003f 00063 (test.go:59)	MOVQ	AX, "".s+56(SP)
	0x0044 00068 (test.go:60)	PCDATA	$0, $1
	0x0044 00068 (test.go:60)	LEAQ	type."".rot13Reader(SB), AX
	0x004b 00075 (test.go:60)	PCDATA	$0, $0
	0x004b 00075 (test.go:60)	MOVQ	AX, (SP)
	0x004f 00079 (test.go:60)	CALL	runtime.newobject(SB)
	0x0054 00084 (test.go:60)	PCDATA	$0, $1
	0x0054 00084 (test.go:60)	MOVQ	8(SP), AX
	0x0059 00089 (test.go:60)	PCDATA	$0, $0
	0x0059 00089 (test.go:60)	PCDATA	$1, $2
	0x0059 00089 (test.go:60)	MOVQ	AX, "".&r+80(SP)
	0x005e 00094 (test.go:60)	PCDATA	$0, $1
	0x005e 00094 (test.go:60)	PCDATA	$1, $3
	0x005e 00094 (test.go:60)	MOVQ	"".s+56(SP), AX
	0x0063 00099 (test.go:60)	PCDATA	$0, $0
	0x0063 00099 (test.go:60)	PCDATA	$1, $4
	0x0063 00099 (test.go:60)	MOVQ	AX, ""..autotmp_3+72(SP)
	0x0068 00104 (test.go:60)	XORPS	X0, X0
	0x006b 00107 (test.go:60)	MOVUPS	X0, ""..autotmp_5+88(SP)
	0x0070 00112 (test.go:60)	PCDATA	$0, $1
	0x0070 00112 (test.go:60)	PCDATA	$1, $3
	0x0070 00112 (test.go:60)	MOVQ	""..autotmp_3+72(SP), AX
	0x0075 00117 (test.go:60)	PCDATA	$0, $2
	0x0075 00117 (test.go:60)	LEAQ	go.itab.*strings.Reader,io.Reader(SB), CX
	0x007c 00124 (test.go:60)	MOVQ	CX, ""..autotmp_5+88(SP)
	0x0081 00129 (test.go:60)	MOVQ	AX, ""..autotmp_5+96(SP)
	0x0086 00134 (test.go:60)	PCDATA	$0, $3
	0x0086 00134 (test.go:60)	MOVQ	"".&r+80(SP), DX
	0x008b 00139 (test.go:60)	PCDATA	$0, $4
	0x008b 00139 (test.go:60)	MOVQ	CX, (DX)
	0x008e 00142 (test.go:60)	PCDATA	$0, $5
	0x008e 00142 (test.go:60)	LEAQ	8(DX), DI
	0x0092 00146 (test.go:60)	PCDATA	$0, $-2
	0x0092 00146 (test.go:60)	PCDATA	$1, $-2
	0x0092 00146 (test.go:60)	CMPL	runtime.writeBarrier(SB), $0
	0x0099 00153 (test.go:60)	JEQ	157
	0x009b 00155 (test.go:60)	JMP	228
	0x009d 00157 (test.go:60)	MOVQ	AX, 8(DX)
	0x00a1 00161 (test.go:60)	JMP	163
	0x00a3 00163 (test.go:61)	PCDATA	$0, $1
	0x00a3 00163 (test.go:61)	PCDATA	$1, $0
	0x00a3 00163 (test.go:61)	MOVQ	"".&r+80(SP), AX
	0x00a8 00168 (test.go:61)	MOVQ	AX, ""..autotmp_4+64(SP)
	0x00ad 00173 (test.go:61)	PCDATA	$0, $2
	0x00ad 00173 (test.go:61)	MOVQ	os.Stdout(SB), CX
	0x00b4 00180 (test.go:61)	PCDATA	$0, $3
	0x00b4 00180 (test.go:61)	LEAQ	go.itab.*os.File,io.Writer(SB), DX
	0x00bb 00187 (test.go:61)	PCDATA	$0, $2
	0x00bb 00187 (test.go:61)	MOVQ	DX, (SP)
	0x00bf 00191 (test.go:61)	PCDATA	$0, $1
	0x00bf 00191 (test.go:61)	MOVQ	CX, 8(SP)
	0x00c4 00196 (test.go:61)	PCDATA	$0, $2
	0x00c4 00196 (test.go:61)	LEAQ	go.itab.*"".rot13Reader,io.Reader(SB), CX
	0x00cb 00203 (test.go:61)	PCDATA	$0, $1
	0x00cb 00203 (test.go:61)	MOVQ	CX, 16(SP)
	0x00d0 00208 (test.go:61)	PCDATA	$0, $0
	0x00d0 00208 (test.go:61)	MOVQ	AX, 24(SP)
	0x00d5 00213 (test.go:61)	CALL	io.Copy(SB)
	0x00da 00218 (test.go:62)	MOVQ	104(SP), BP
	0x00df 00223 (test.go:62)	ADDQ	$112, SP
	0x00e3 00227 (test.go:62)	RET
	0x00e4 00228 (test.go:60)	PCDATA	$0, $-2
	0x00e4 00228 (test.go:60)	PCDATA	$1, $-2
	0x00e4 00228 (test.go:60)	CALL	runtime.gcWriteBarrier(SB)
	0x00e9 00233 (test.go:60)	JMP	163
	0x00eb 00235 (test.go:60)	NOP
	0x00eb 00235 (test.go:58)	PCDATA	$1, $-1
	0x00eb 00235 (test.go:58)	PCDATA	$0, $-1
	0x00eb 00235 (test.go:58)	CALL	runtime.morestack_noctxt(SB)
	0x00f0 00240 (test.go:58)	JMP	0
	0x0000 65 48 8b 0c 25 00 00 00 00 48 3b 61 10 0f 86 d8  eH..%....H;a....
	0x0010 00 00 00 48 83 ec 70 48 89 6c 24 68 48 8d 6c 24  ...H..pH.l$hH.l$
	0x0020 68 48 8d 05 00 00 00 00 48 89 04 24 48 c7 44 24  hH......H..$H.D$
	0x0030 08 15 00 00 00 e8 00 00 00 00 48 8b 44 24 10 48  ..........H.D$.H
	0x0040 89 44 24 38 48 8d 05 00 00 00 00 48 89 04 24 e8  .D$8H......H..$.
	0x0050 00 00 00 00 48 8b 44 24 08 48 89 44 24 50 48 8b  ....H.D$.H.D$PH.
	0x0060 44 24 38 48 89 44 24 48 0f 57 c0 0f 11 44 24 58  D$8H.D$H.W...D$X
	0x0070 48 8b 44 24 48 48 8d 0d 00 00 00 00 48 89 4c 24  H.D$HH......H.L$
	0x0080 58 48 89 44 24 60 48 8b 54 24 50 48 89 0a 48 8d  XH.D$`H.T$PH..H.
	0x0090 7a 08 83 3d 00 00 00 00 00 74 02 eb 47 48 89 42  z..=.....t..GH.B
	0x00a0 08 eb 00 48 8b 44 24 50 48 89 44 24 40 48 8b 0d  ...H.D$PH.D$@H..
	0x00b0 00 00 00 00 48 8d 15 00 00 00 00 48 89 14 24 48  ....H......H..$H
	0x00c0 89 4c 24 08 48 8d 0d 00 00 00 00 48 89 4c 24 10  .L$.H......H.L$.
	0x00d0 48 89 44 24 18 e8 00 00 00 00 48 8b 6c 24 68 48  H.D$......H.l$hH
	0x00e0 83 c4 70 c3 e8 00 00 00 00 eb b8 e8 00 00 00 00  ..p.............
	0x00f0 e9 0b ff ff ff                                   .....
	rel 5+4 t=16 TLS+0
	rel 36+4 t=15 go.string."Lbh penpxrq gur pbqr!"+0
	rel 54+4 t=8 strings.NewReader+0
	rel 71+4 t=15 type."".rot13Reader+0
	rel 80+4 t=8 runtime.newobject+0
	rel 120+4 t=15 go.itab.*strings.Reader,io.Reader+0
	rel 148+4 t=15 runtime.writeBarrier+-1
	rel 176+4 t=15 os.Stdout+0
	rel 183+4 t=15 go.itab.*os.File,io.Writer+0
	rel 199+4 t=15 go.itab.*"".rot13Reader,io.Reader+0
	rel 214+4 t=8 io.Copy+0
	rel 229+4 t=8 runtime.gcWriteBarrier+0
	rel 236+4 t=8 runtime.morestack_noctxt+0
"".printSlice STEXT size=448 args=0x18 locals=0xc0
	0x0000 00000 (test.go:64)	TEXT	"".printSlice(SB), ABIInternal, $192-24
	0x0000 00000 (test.go:64)	MOVQ	(TLS), CX
	0x0009 00009 (test.go:64)	LEAQ	-64(SP), AX
	0x000e 00014 (test.go:64)	CMPQ	AX, 16(CX)
	0x0012 00018 (test.go:64)	JLS	438
	0x0018 00024 (test.go:64)	SUBQ	$192, SP
	0x001f 00031 (test.go:64)	MOVQ	BP, 184(SP)
	0x0027 00039 (test.go:64)	LEAQ	184(SP), BP
	0x002f 00047 (test.go:64)	FUNCDATA	$0, gclocals·2e82ec484edad8567a27d109087d3446(SB)
	0x002f 00047 (test.go:64)	FUNCDATA	$1, gclocals·6a47ac248f2d2d817e4190d068e08b9f(SB)
	0x002f 00047 (test.go:64)	FUNCDATA	$2, gclocals·cc71413ca7aa252461e8f7e24c7c2df4(SB)
	0x002f 00047 (test.go:64)	FUNCDATA	$3, "".printSlice.stkobj(SB)
	0x002f 00047 (test.go:65)	PCDATA	$0, $0
	0x002f 00047 (test.go:65)	PCDATA	$1, $0
	0x002f 00047 (test.go:65)	MOVQ	"".s+208(SP), AX
	0x0037 00055 (test.go:65)	MOVQ	AX, ""..autotmp_2+72(SP)
	0x003c 00060 (test.go:65)	MOVQ	"".s+216(SP), AX
	0x0044 00068 (test.go:65)	MOVQ	AX, ""..autotmp_3+64(SP)
	0x0049 00073 (test.go:65)	MOVQ	""..autotmp_2+72(SP), AX
	0x004e 00078 (test.go:65)	MOVQ	AX, (SP)
	0x0052 00082 (test.go:65)	CALL	runtime.convT64(SB)
	0x0057 00087 (test.go:65)	PCDATA	$0, $1
	0x0057 00087 (test.go:65)	MOVQ	8(SP), AX
	0x005c 00092 (test.go:65)	PCDATA	$0, $0
	0x005c 00092 (test.go:65)	PCDATA	$1, $1
	0x005c 00092 (test.go:65)	MOVQ	AX, ""..autotmp_4+104(SP)
	0x0061 00097 (test.go:65)	MOVQ	""..autotmp_3+64(SP), AX
	0x0066 00102 (test.go:65)	MOVQ	AX, (SP)
	0x006a 00106 (test.go:65)	CALL	runtime.convT64(SB)
	0x006f 00111 (test.go:65)	PCDATA	$0, $1
	0x006f 00111 (test.go:65)	MOVQ	8(SP), AX
	0x0074 00116 (test.go:65)	PCDATA	$0, $0
	0x0074 00116 (test.go:65)	PCDATA	$1, $2
	0x0074 00116 (test.go:65)	MOVQ	AX, ""..autotmp_5+96(SP)
	0x0079 00121 (test.go:65)	MOVQ	"".s+216(SP), AX
	0x0081 00129 (test.go:65)	MOVQ	"".s+208(SP), CX
	0x0089 00137 (test.go:65)	PCDATA	$0, $2
	0x0089 00137 (test.go:65)	PCDATA	$1, $3
	0x0089 00137 (test.go:65)	MOVQ	"".s+200(SP), DX
	0x0091 00145 (test.go:65)	PCDATA	$0, $0
	0x0091 00145 (test.go:65)	MOVQ	DX, (SP)
	0x0095 00149 (test.go:65)	MOVQ	CX, 8(SP)
	0x009a 00154 (test.go:65)	MOVQ	AX, 16(SP)
	0x009f 00159 (test.go:65)	CALL	runtime.convTslice(SB)
	0x00a4 00164 (test.go:65)	PCDATA	$0, $1
	0x00a4 00164 (test.go:65)	MOVQ	24(SP), AX
	0x00a9 00169 (test.go:65)	PCDATA	$0, $0
	0x00a9 00169 (test.go:65)	PCDATA	$1, $4
	0x00a9 00169 (test.go:65)	MOVQ	AX, ""..autotmp_6+88(SP)
	0x00ae 00174 (test.go:65)	PCDATA	$1, $5
	0x00ae 00174 (test.go:65)	XORPS	X0, X0
	0x00b1 00177 (test.go:65)	MOVUPS	X0, ""..autotmp_1+136(SP)
	0x00b9 00185 (test.go:65)	XORPS	X0, X0
	0x00bc 00188 (test.go:65)	MOVUPS	X0, ""..autotmp_1+152(SP)
	0x00c4 00196 (test.go:65)	XORPS	X0, X0
	0x00c7 00199 (test.go:65)	MOVUPS	X0, ""..autotmp_1+168(SP)
	0x00cf 00207 (test.go:65)	PCDATA	$0, $1
	0x00cf 00207 (test.go:65)	PCDATA	$1, $4
	0x00cf 00207 (test.go:65)	LEAQ	""..autotmp_1+136(SP), AX
	0x00d7 00215 (test.go:65)	PCDATA	$1, $6
	0x00d7 00215 (test.go:65)	MOVQ	AX, ""..autotmp_8+80(SP)
	0x00dc 00220 (test.go:65)	TESTB	AL, (AX)
	0x00de 00222 (test.go:65)	PCDATA	$0, $3
	0x00de 00222 (test.go:65)	PCDATA	$1, $7
	0x00de 00222 (test.go:65)	MOVQ	""..autotmp_4+104(SP), CX
	0x00e3 00227 (test.go:65)	PCDATA	$0, $4
	0x00e3 00227 (test.go:65)	LEAQ	type.int(SB), DX
	0x00ea 00234 (test.go:65)	PCDATA	$0, $3
	0x00ea 00234 (test.go:65)	MOVQ	DX, ""..autotmp_1+136(SP)
	0x00f2 00242 (test.go:65)	PCDATA	$0, $1
	0x00f2 00242 (test.go:65)	MOVQ	CX, ""..autotmp_1+144(SP)
	0x00fa 00250 (test.go:65)	PCDATA	$0, $0
	0x00fa 00250 (test.go:65)	TESTB	AL, (AX)
	0x00fc 00252 (test.go:65)	PCDATA	$0, $1
	0x00fc 00252 (test.go:65)	PCDATA	$1, $8
	0x00fc 00252 (test.go:65)	MOVQ	""..autotmp_5+96(SP), AX
	0x0101 00257 (test.go:65)	PCDATA	$0, $3
	0x0101 00257 (test.go:65)	LEAQ	type.int(SB), CX
	0x0108 00264 (test.go:65)	PCDATA	$0, $1
	0x0108 00264 (test.go:65)	MOVQ	CX, ""..autotmp_1+152(SP)
	0x0110 00272 (test.go:65)	PCDATA	$0, $0
	0x0110 00272 (test.go:65)	MOVQ	AX, ""..autotmp_1+160(SP)
	0x0118 00280 (test.go:65)	PCDATA	$0, $1
	0x0118 00280 (test.go:65)	MOVQ	""..autotmp_8+80(SP), AX
	0x011d 00285 (test.go:65)	TESTB	AL, (AX)
	0x011f 00287 (test.go:65)	PCDATA	$0, $3
	0x011f 00287 (test.go:65)	PCDATA	$1, $9
	0x011f 00287 (test.go:65)	MOVQ	""..autotmp_6+88(SP), CX
	0x0124 00292 (test.go:65)	PCDATA	$0, $4
	0x0124 00292 (test.go:65)	LEAQ	type.[]int(SB), DX
	0x012b 00299 (test.go:65)	PCDATA	$0, $3
	0x012b 00299 (test.go:65)	MOVQ	DX, 32(AX)
	0x012f 00303 (test.go:65)	PCDATA	$0, $5
	0x012f 00303 (test.go:65)	LEAQ	40(AX), DI
	0x0133 00307 (test.go:65)	PCDATA	$0, $-2
	0x0133 00307 (test.go:65)	PCDATA	$1, $-2
	0x0133 00307 (test.go:65)	CMPL	runtime.writeBarrier(SB), $0
	0x013a 00314 (test.go:65)	JEQ	318
	0x013c 00316 (test.go:65)	JMP	428
	0x013e 00318 (test.go:65)	MOVQ	CX, 40(AX)
	0x0142 00322 (test.go:65)	JMP	324
	0x0144 00324 (test.go:65)	PCDATA	$0, $1
	0x0144 00324 (test.go:65)	PCDATA	$1, $10
	0x0144 00324 (test.go:65)	MOVQ	""..autotmp_8+80(SP), AX
	0x0149 00329 (test.go:65)	TESTB	AL, (AX)
	0x014b 00331 (test.go:65)	JMP	333
	0x014d 00333 (test.go:65)	PCDATA	$0, $0
	0x014d 00333 (test.go:65)	PCDATA	$1, $11
	0x014d 00333 (test.go:65)	MOVQ	AX, ""..autotmp_7+112(SP)
	0x0152 00338 (test.go:65)	MOVQ	$3, ""..autotmp_7+120(SP)
	0x015b 00347 (test.go:65)	MOVQ	$3, ""..autotmp_7+128(SP)
	0x0167 00359 (test.go:65)	PCDATA	$0, $1
	0x0167 00359 (test.go:65)	LEAQ	go.string."len=%d cap=%d %v\n"(SB), AX
	0x016e 00366 (test.go:65)	PCDATA	$0, $0
	0x016e 00366 (test.go:65)	MOVQ	AX, (SP)
	0x0172 00370 (test.go:65)	MOVQ	$17, 8(SP)
	0x017b 00379 (test.go:65)	PCDATA	$0, $1
	0x017b 00379 (test.go:65)	PCDATA	$1, $10
	0x017b 00379 (test.go:65)	MOVQ	""..autotmp_7+112(SP), AX
	0x0180 00384 (test.go:65)	PCDATA	$0, $0
	0x0180 00384 (test.go:65)	MOVQ	AX, 16(SP)
	0x0185 00389 (test.go:65)	MOVQ	$3, 24(SP)
	0x018e 00398 (test.go:65)	MOVQ	$3, 32(SP)
	0x0197 00407 (test.go:65)	CALL	fmt.Printf(SB)
	0x019c 00412 (test.go:66)	MOVQ	184(SP), BP
	0x01a4 00420 (test.go:66)	ADDQ	$192, SP
	0x01ab 00427 (test.go:66)	RET
	0x01ac 00428 (test.go:65)	PCDATA	$0, $-2
	0x01ac 00428 (test.go:65)	PCDATA	$1, $-2
	0x01ac 00428 (test.go:65)	MOVQ	CX, AX
	0x01af 00431 (test.go:65)	CALL	runtime.gcWriteBarrier(SB)
	0x01b4 00436 (test.go:65)	JMP	324
	0x01b6 00438 (test.go:65)	NOP
	0x01b6 00438 (test.go:64)	PCDATA	$1, $-1
	0x01b6 00438 (test.go:64)	PCDATA	$0, $-1
	0x01b6 00438 (test.go:64)	CALL	runtime.morestack_noctxt(SB)
	0x01bb 00443 (test.go:64)	JMP	0
	0x0000 65 48 8b 0c 25 00 00 00 00 48 8d 44 24 c0 48 3b  eH..%....H.D$.H;
	0x0010 41 10 0f 86 9e 01 00 00 48 81 ec c0 00 00 00 48  A.......H......H
	0x0020 89 ac 24 b8 00 00 00 48 8d ac 24 b8 00 00 00 48  ..$....H..$....H
	0x0030 8b 84 24 d0 00 00 00 48 89 44 24 48 48 8b 84 24  ..$....H.D$HH..$
	0x0040 d8 00 00 00 48 89 44 24 40 48 8b 44 24 48 48 89  ....H.D$@H.D$HH.
	0x0050 04 24 e8 00 00 00 00 48 8b 44 24 08 48 89 44 24  .$.....H.D$.H.D$
	0x0060 68 48 8b 44 24 40 48 89 04 24 e8 00 00 00 00 48  hH.D$@H..$.....H
	0x0070 8b 44 24 08 48 89 44 24 60 48 8b 84 24 d8 00 00  .D$.H.D$`H..$...
	0x0080 00 48 8b 8c 24 d0 00 00 00 48 8b 94 24 c8 00 00  .H..$....H..$...
	0x0090 00 48 89 14 24 48 89 4c 24 08 48 89 44 24 10 e8  .H..$H.L$.H.D$..
	0x00a0 00 00 00 00 48 8b 44 24 18 48 89 44 24 58 0f 57  ....H.D$.H.D$X.W
	0x00b0 c0 0f 11 84 24 88 00 00 00 0f 57 c0 0f 11 84 24  ....$.....W....$
	0x00c0 98 00 00 00 0f 57 c0 0f 11 84 24 a8 00 00 00 48  .....W....$....H
	0x00d0 8d 84 24 88 00 00 00 48 89 44 24 50 84 00 48 8b  ..$....H.D$P..H.
	0x00e0 4c 24 68 48 8d 15 00 00 00 00 48 89 94 24 88 00  L$hH......H..$..
	0x00f0 00 00 48 89 8c 24 90 00 00 00 84 00 48 8b 44 24  ..H..$......H.D$
	0x0100 60 48 8d 0d 00 00 00 00 48 89 8c 24 98 00 00 00  `H......H..$....
	0x0110 48 89 84 24 a0 00 00 00 48 8b 44 24 50 84 00 48  H..$....H.D$P..H
	0x0120 8b 4c 24 58 48 8d 15 00 00 00 00 48 89 50 20 48  .L$XH......H.P H
	0x0130 8d 78 28 83 3d 00 00 00 00 00 74 02 eb 6e 48 89  .x(.=.....t..nH.
	0x0140 48 28 eb 00 48 8b 44 24 50 84 00 eb 00 48 89 44  H(..H.D$P....H.D
	0x0150 24 70 48 c7 44 24 78 03 00 00 00 48 c7 84 24 80  $pH.D$x....H..$.
	0x0160 00 00 00 03 00 00 00 48 8d 05 00 00 00 00 48 89  .......H......H.
	0x0170 04 24 48 c7 44 24 08 11 00 00 00 48 8b 44 24 70  .$H.D$.....H.D$p
	0x0180 48 89 44 24 10 48 c7 44 24 18 03 00 00 00 48 c7  H.D$.H.D$.....H.
	0x0190 44 24 20 03 00 00 00 e8 00 00 00 00 48 8b ac 24  D$ .........H..$
	0x01a0 b8 00 00 00 48 81 c4 c0 00 00 00 c3 48 89 c8 e8  ....H.......H...
	0x01b0 00 00 00 00 eb 8e e8 00 00 00 00 e9 40 fe ff ff  ............@...
	rel 5+4 t=16 TLS+0
	rel 83+4 t=8 runtime.convT64+0
	rel 107+4 t=8 runtime.convT64+0
	rel 160+4 t=8 runtime.convTslice+0
	rel 230+4 t=15 type.int+0
	rel 260+4 t=15 type.int+0
	rel 295+4 t=15 type.[]int+0
	rel 309+4 t=15 runtime.writeBarrier+-1
	rel 362+4 t=15 go.string."len=%d cap=%d %v\n"+0
	rel 408+4 t=8 fmt.Printf+0
	rel 432+4 t=8 runtime.gcWriteBarrier+0
	rel 439+4 t=8 runtime.morestack_noctxt+0
type..hash.[3]interface {} STEXT dupok size=176 args=0x18 locals=0x40
	0x0000 00000 (<autogenerated>:1)	TEXT	type..hash.[3]interface {}(SB), DUPOK|ABIInternal, $64-24
	0x0000 00000 (<autogenerated>:1)	MOVQ	(TLS), CX
	0x0009 00009 (<autogenerated>:1)	CMPQ	SP, 16(CX)
	0x000d 00013 (<autogenerated>:1)	JLS	166
	0x0013 00019 (<autogenerated>:1)	SUBQ	$64, SP
	0x0017 00023 (<autogenerated>:1)	MOVQ	BP, 56(SP)
	0x001c 00028 (<autogenerated>:1)	LEAQ	56(SP), BP
	0x0021 00033 (<autogenerated>:1)	FUNCDATA	$0, gclocals·1a65e721a2ccc325b382662e7ffee780(SB)
	0x0021 00033 (<autogenerated>:1)	FUNCDATA	$1, gclocals·263043c8f03e3241528dfae4e2812ef4(SB)
	0x0021 00033 (<autogenerated>:1)	FUNCDATA	$2, gclocals·9fb7f0986f647f17cb53dda1484e0f7a(SB)
	0x0021 00033 (<autogenerated>:1)	PCDATA	$0, $0
	0x0021 00033 (<autogenerated>:1)	PCDATA	$1, $0
	0x0021 00033 (<autogenerated>:1)	MOVQ	$0, "".~r2+88(SP)
	0x002a 00042 (<autogenerated>:1)	MOVQ	$0, ""..autotmp_4+40(SP)
	0x0033 00051 (<autogenerated>:1)	MOVQ	$3, ""..autotmp_5+32(SP)
	0x003c 00060 (<autogenerated>:1)	JMP	62
	0x003e 00062 (<autogenerated>:1)	MOVQ	""..autotmp_5+32(SP), AX
	0x0043 00067 (<autogenerated>:1)	CMPQ	""..autotmp_4+40(SP), AX
	0x0048 00072 (<autogenerated>:1)	JLT	76
	0x004a 00074 (<autogenerated>:1)	JMP	146
	0x004c 00076 (<autogenerated>:1)	MOVQ	""..autotmp_4+40(SP), AX
	0x0051 00081 (<autogenerated>:1)	MOVQ	AX, "".i+24(SP)
	0x0056 00086 (<autogenerated>:1)	SHLQ	$4, AX
	0x005a 00090 (<autogenerated>:1)	PCDATA	$0, $1
	0x005a 00090 (<autogenerated>:1)	ADDQ	"".p+72(SP), AX
	0x005f 00095 (<autogenerated>:1)	MOVQ	AX, ""..autotmp_6+48(SP)
	0x0064 00100 (<autogenerated>:1)	PCDATA	$0, $0
	0x0064 00100 (<autogenerated>:1)	MOVQ	AX, (SP)
	0x0068 00104 (<autogenerated>:1)	MOVQ	"".h+80(SP), AX
	0x006d 00109 (<autogenerated>:1)	MOVQ	AX, 8(SP)
	0x0072 00114 (<autogenerated>:1)	CALL	runtime.nilinterhash(SB)
	0x0077 00119 (<autogenerated>:1)	MOVQ	16(SP), AX
	0x007c 00124 (<autogenerated>:1)	MOVQ	AX, "".h+80(SP)
	0x0081 00129 (<autogenerated>:1)	JMP	131
	0x0083 00131 (<autogenerated>:1)	MOVQ	""..autotmp_4+40(SP), AX
	0x0088 00136 (<autogenerated>:1)	INCQ	AX
	0x008b 00139 (<autogenerated>:1)	MOVQ	AX, ""..autotmp_4+40(SP)
	0x0090 00144 (<autogenerated>:1)	JMP	62
	0x0092 00146 (<autogenerated>:1)	PCDATA	$1, $1
	0x0092 00146 (<autogenerated>:1)	MOVQ	"".h+80(SP), AX
	0x0097 00151 (<autogenerated>:1)	MOVQ	AX, "".~r2+88(SP)
	0x009c 00156 (<autogenerated>:1)	MOVQ	56(SP), BP
	0x00a1 00161 (<autogenerated>:1)	ADDQ	$64, SP
	0x00a5 00165 (<autogenerated>:1)	RET
	0x00a6 00166 (<autogenerated>:1)	NOP
	0x00a6 00166 (<autogenerated>:1)	PCDATA	$1, $-1
	0x00a6 00166 (<autogenerated>:1)	PCDATA	$0, $-1
	0x00a6 00166 (<autogenerated>:1)	CALL	runtime.morestack_noctxt(SB)
	0x00ab 00171 (<autogenerated>:1)	JMP	0
	0x0000 65 48 8b 0c 25 00 00 00 00 48 3b 61 10 0f 86 93  eH..%....H;a....
	0x0010 00 00 00 48 83 ec 40 48 89 6c 24 38 48 8d 6c 24  ...H..@H.l$8H.l$
	0x0020 38 48 c7 44 24 58 00 00 00 00 48 c7 44 24 28 00  8H.D$X....H.D$(.
	0x0030 00 00 00 48 c7 44 24 20 03 00 00 00 eb 00 48 8b  ...H.D$ ......H.
	0x0040 44 24 20 48 39 44 24 28 7c 02 eb 46 48 8b 44 24  D$ H9D$(|..FH.D$
	0x0050 28 48 89 44 24 18 48 c1 e0 04 48 03 44 24 48 48  (H.D$.H...H.D$HH
	0x0060 89 44 24 30 48 89 04 24 48 8b 44 24 50 48 89 44  .D$0H..$H.D$PH.D
	0x0070 24 08 e8 00 00 00 00 48 8b 44 24 10 48 89 44 24  $......H.D$.H.D$
	0x0080 50 eb 00 48 8b 44 24 28 48 ff c0 48 89 44 24 28  P..H.D$(H..H.D$(
	0x0090 eb ac 48 8b 44 24 50 48 89 44 24 58 48 8b 6c 24  ..H.D$PH.D$XH.l$
	0x00a0 38 48 83 c4 40 c3 e8 00 00 00 00 e9 50 ff ff ff  8H..@.......P...
	rel 5+4 t=16 TLS+0
	rel 115+4 t=8 runtime.nilinterhash+0
	rel 167+4 t=8 runtime.morestack_noctxt+0
type..eq.[3]interface {} STEXT dupok size=248 args=0x18 locals=0x60
	0x0000 00000 (<autogenerated>:1)	TEXT	type..eq.[3]interface {}(SB), DUPOK|ABIInternal, $96-24
	0x0000 00000 (<autogenerated>:1)	MOVQ	(TLS), CX
	0x0009 00009 (<autogenerated>:1)	CMPQ	SP, 16(CX)
	0x000d 00013 (<autogenerated>:1)	JLS	238
	0x0013 00019 (<autogenerated>:1)	SUBQ	$96, SP
	0x0017 00023 (<autogenerated>:1)	MOVQ	BP, 88(SP)
	0x001c 00028 (<autogenerated>:1)	LEAQ	88(SP), BP
	0x0021 00033 (<autogenerated>:1)	FUNCDATA	$0, gclocals·5e326a2f5498e528ce8fbe7bd86e7d21(SB)
	0x0021 00033 (<autogenerated>:1)	FUNCDATA	$1, gclocals·5363b3e3636eaaac400b9fb2466dc1f5(SB)
	0x0021 00033 (<autogenerated>:1)	FUNCDATA	$2, gclocals·6e8d7ea4abad763909b26991048ee1fe(SB)
	0x0021 00033 (<autogenerated>:1)	PCDATA	$0, $0
	0x0021 00033 (<autogenerated>:1)	PCDATA	$1, $0
	0x0021 00033 (<autogenerated>:1)	MOVB	$0, "".~r2+120(SP)
	0x0026 00038 (<autogenerated>:1)	MOVQ	$0, ""..autotmp_4+48(SP)
	0x002f 00047 (<autogenerated>:1)	MOVQ	$3, ""..autotmp_5+40(SP)
	0x0038 00056 (<autogenerated>:1)	JMP	58
	0x003a 00058 (<autogenerated>:1)	MOVQ	""..autotmp_5+40(SP), AX
	0x003f 00063 (<autogenerated>:1)	CMPQ	""..autotmp_4+48(SP), AX
	0x0044 00068 (<autogenerated>:1)	JLT	75
	0x0046 00070 (<autogenerated>:1)	JMP	223
	0x004b 00075 (<autogenerated>:1)	MOVQ	""..autotmp_4+48(SP), AX
	0x0050 00080 (<autogenerated>:1)	MOVQ	AX, "".i+32(SP)
	0x0055 00085 (<autogenerated>:1)	SHLQ	$4, AX
	0x0059 00089 (<autogenerated>:1)	PCDATA	$0, $1
	0x0059 00089 (<autogenerated>:1)	ADDQ	"".q+112(SP), AX
	0x005e 00094 (<autogenerated>:1)	PCDATA	$0, $2
	0x005e 00094 (<autogenerated>:1)	MOVQ	8(AX), CX
	0x0062 00098 (<autogenerated>:1)	PCDATA	$0, $3
	0x0062 00098 (<autogenerated>:1)	MOVQ	(AX), AX
	0x0065 00101 (<autogenerated>:1)	PCDATA	$1, $1
	0x0065 00101 (<autogenerated>:1)	MOVQ	AX, ""..autotmp_6+72(SP)
	0x006a 00106 (<autogenerated>:1)	PCDATA	$0, $0
	0x006a 00106 (<autogenerated>:1)	MOVQ	CX, ""..autotmp_6+80(SP)
	0x006f 00111 (<autogenerated>:1)	MOVQ	"".i+32(SP), AX
	0x0074 00116 (<autogenerated>:1)	SHLQ	$4, AX
	0x0078 00120 (<autogenerated>:1)	PCDATA	$0, $1
	0x0078 00120 (<autogenerated>:1)	ADDQ	"".p+104(SP), AX
	0x007d 00125 (<autogenerated>:1)	PCDATA	$0, $2
	0x007d 00125 (<autogenerated>:1)	MOVQ	8(AX), CX
	0x0081 00129 (<autogenerated>:1)	PCDATA	$0, $3
	0x0081 00129 (<autogenerated>:1)	MOVQ	(AX), AX
	0x0084 00132 (<autogenerated>:1)	MOVQ	AX, ""..autotmp_7+56(SP)
	0x0089 00137 (<autogenerated>:1)	MOVQ	CX, ""..autotmp_7+64(SP)
	0x008e 00142 (<autogenerated>:1)	CMPQ	""..autotmp_6+72(SP), AX
	0x0093 00147 (<autogenerated>:1)	JNE	151
	0x0095 00149 (<autogenerated>:1)	JMP	168
	0x0097 00151 (<autogenerated>:1)	PCDATA	$0, $-2
	0x0097 00151 (<autogenerated>:1)	PCDATA	$1, $-2
	0x0097 00151 (<autogenerated>:1)	JMP	153
	0x0099 00153 (<autogenerated>:1)	PCDATA	$0, $0
	0x0099 00153 (<autogenerated>:1)	PCDATA	$1, $2
	0x0099 00153 (<autogenerated>:1)	MOVB	$0, "".~r2+120(SP)
	0x009e 00158 (<autogenerated>:1)	MOVQ	88(SP), BP
	0x00a3 00163 (<autogenerated>:1)	ADDQ	$96, SP
	0x00a7 00167 (<autogenerated>:1)	RET
	0x00a8 00168 (<autogenerated>:1)	PCDATA	$0, $3
	0x00a8 00168 (<autogenerated>:1)	PCDATA	$1, $1
	0x00a8 00168 (<autogenerated>:1)	MOVQ	AX, (SP)
	0x00ac 00172 (<autogenerated>:1)	PCDATA	$0, $0
	0x00ac 00172 (<autogenerated>:1)	MOVQ	CX, 8(SP)
	0x00b1 00177 (<autogenerated>:1)	PCDATA	$0, $1
	0x00b1 00177 (<autogenerated>:1)	PCDATA	$1, $0
	0x00b1 00177 (<autogenerated>:1)	MOVQ	""..autotmp_6+80(SP), AX
	0x00b6 00182 (<autogenerated>:1)	PCDATA	$0, $0
	0x00b6 00182 (<autogenerated>:1)	MOVQ	AX, 16(SP)
	0x00bb 00187 (<autogenerated>:1)	CALL	runtime.efaceeq(SB)
	0x00c0 00192 (<autogenerated>:1)	CMPB	24(SP), $0
	0x00c5 00197 (<autogenerated>:1)	JNE	201
	0x00c7 00199 (<autogenerated>:1)	JMP	221
	0x00c9 00201 (<autogenerated>:1)	PCDATA	$0, $-2
	0x00c9 00201 (<autogenerated>:1)	PCDATA	$1, $-2
	0x00c9 00201 (<autogenerated>:1)	JMP	203
	0x00cb 00203 (<autogenerated>:1)	PCDATA	$0, $0
	0x00cb 00203 (<autogenerated>:1)	PCDATA	$1, $0
	0x00cb 00203 (<autogenerated>:1)	MOVQ	""..autotmp_4+48(SP), AX
	0x00d0 00208 (<autogenerated>:1)	INCQ	AX
	0x00d3 00211 (<autogenerated>:1)	MOVQ	AX, ""..autotmp_4+48(SP)
	0x00d8 00216 (<autogenerated>:1)	JMP	58
	0x00dd 00221 (<autogenerated>:1)	PCDATA	$0, $-2
	0x00dd 00221 (<autogenerated>:1)	PCDATA	$1, $-2
	0x00dd 00221 (<autogenerated>:1)	JMP	153
	0x00df 00223 (<autogenerated>:1)	PCDATA	$0, $0
	0x00df 00223 (<autogenerated>:1)	PCDATA	$1, $2
	0x00df 00223 (<autogenerated>:1)	MOVB	$1, "".~r2+120(SP)
	0x00e4 00228 (<autogenerated>:1)	MOVQ	88(SP), BP
	0x00e9 00233 (<autogenerated>:1)	ADDQ	$96, SP
	0x00ed 00237 (<autogenerated>:1)	RET
	0x00ee 00238 (<autogenerated>:1)	NOP
	0x00ee 00238 (<autogenerated>:1)	PCDATA	$1, $-1
	0x00ee 00238 (<autogenerated>:1)	PCDATA	$0, $-1
	0x00ee 00238 (<autogenerated>:1)	CALL	runtime.morestack_noctxt(SB)
	0x00f3 00243 (<autogenerated>:1)	JMP	0
	0x0000 65 48 8b 0c 25 00 00 00 00 48 3b 61 10 0f 86 db  eH..%....H;a....
	0x0010 00 00 00 48 83 ec 60 48 89 6c 24 58 48 8d 6c 24  ...H..`H.l$XH.l$
	0x0020 58 c6 44 24 78 00 48 c7 44 24 30 00 00 00 00 48  X.D$x.H.D$0....H
	0x0030 c7 44 24 28 03 00 00 00 eb 00 48 8b 44 24 28 48  .D$(......H.D$(H
	0x0040 39 44 24 30 7c 05 e9 94 00 00 00 48 8b 44 24 30  9D$0|......H.D$0
	0x0050 48 89 44 24 20 48 c1 e0 04 48 03 44 24 70 48 8b  H.D$ H...H.D$pH.
	0x0060 48 08 48 8b 00 48 89 44 24 48 48 89 4c 24 50 48  H.H..H.D$HH.L$PH
	0x0070 8b 44 24 20 48 c1 e0 04 48 03 44 24 68 48 8b 48  .D$ H...H.D$hH.H
	0x0080 08 48 8b 00 48 89 44 24 38 48 89 4c 24 40 48 39  .H..H.D$8H.L$@H9
	0x0090 44 24 48 75 02 eb 11 eb 00 c6 44 24 78 00 48 8b  D$Hu......D$x.H.
	0x00a0 6c 24 58 48 83 c4 60 c3 48 89 04 24 48 89 4c 24  l$XH..`.H..$H.L$
	0x00b0 08 48 8b 44 24 50 48 89 44 24 10 e8 00 00 00 00  .H.D$PH.D$......
	0x00c0 80 7c 24 18 00 75 02 eb 14 eb 00 48 8b 44 24 30  .|$..u.....H.D$0
	0x00d0 48 ff c0 48 89 44 24 30 e9 5d ff ff ff eb ba c6  H..H.D$0.]......
	0x00e0 44 24 78 01 48 8b 6c 24 58 48 83 c4 60 c3 e8 00  D$x.H.l$XH..`...
	0x00f0 00 00 00 e9 08 ff ff ff                          ........
	rel 5+4 t=16 TLS+0
	rel 188+4 t=8 runtime.efaceeq+0
	rel 239+4 t=8 runtime.morestack_noctxt+0
"".fibonacci STEXT size=257 args=0x8 locals=0x30
	0x0000 00000 (test.go:68)	TEXT	"".fibonacci(SB), ABIInternal, $48-8
	0x0000 00000 (test.go:68)	MOVQ	(TLS), CX
	0x0009 00009 (test.go:68)	CMPQ	SP, 16(CX)
	0x000d 00013 (test.go:68)	JLS	247
	0x0013 00019 (test.go:68)	SUBQ	$48, SP
	0x0017 00023 (test.go:68)	MOVQ	BP, 40(SP)
	0x001c 00028 (test.go:68)	LEAQ	40(SP), BP
	0x0021 00033 (test.go:68)	FUNCDATA	$0, gclocals·aebfaaccb902f5df3f8b0f52074cfd43(SB)
	0x0021 00033 (test.go:68)	FUNCDATA	$1, gclocals·480e86cc971806130d76f811e08ae420(SB)
	0x0021 00033 (test.go:68)	FUNCDATA	$2, gclocals·73ca1eebee35d5406a0acf4b13f13ff5(SB)
	0x0021 00033 (test.go:68)	PCDATA	$0, $0
	0x0021 00033 (test.go:68)	PCDATA	$1, $0
	0x0021 00033 (test.go:68)	MOVQ	$0, "".~r0+56(SP)
	0x002a 00042 (test.go:69)	PCDATA	$0, $1
	0x002a 00042 (test.go:69)	LEAQ	type.int(SB), AX
	0x0031 00049 (test.go:69)	PCDATA	$0, $0
	0x0031 00049 (test.go:69)	MOVQ	AX, (SP)
	0x0035 00053 (test.go:69)	CALL	runtime.newobject(SB)
	0x003a 00058 (test.go:69)	PCDATA	$0, $1
	0x003a 00058 (test.go:69)	MOVQ	8(SP), AX
	0x003f 00063 (test.go:69)	PCDATA	$1, $1
	0x003f 00063 (test.go:69)	MOVQ	AX, "".&a+32(SP)
	0x0044 00068 (test.go:69)	PCDATA	$0, $0
	0x0044 00068 (test.go:69)	MOVQ	$0, (AX)
	0x004b 00075 (test.go:70)	PCDATA	$0, $1
	0x004b 00075 (test.go:70)	LEAQ	type.int(SB), AX
	0x0052 00082 (test.go:70)	PCDATA	$0, $0
	0x0052 00082 (test.go:70)	MOVQ	AX, (SP)
	0x0056 00086 (test.go:70)	CALL	runtime.newobject(SB)
	0x005b 00091 (test.go:70)	PCDATA	$0, $1
	0x005b 00091 (test.go:70)	MOVQ	8(SP), AX
	0x0060 00096 (test.go:70)	PCDATA	$1, $2
	0x0060 00096 (test.go:70)	MOVQ	AX, "".&b+24(SP)
	0x0065 00101 (test.go:70)	PCDATA	$0, $0
	0x0065 00101 (test.go:70)	MOVQ	$1, (AX)
	0x006c 00108 (test.go:71)	PCDATA	$0, $1
	0x006c 00108 (test.go:71)	LEAQ	type.noalg.struct { F uintptr; "".b *int; "".a *int }(SB), AX
	0x0073 00115 (test.go:71)	PCDATA	$0, $0
	0x0073 00115 (test.go:71)	MOVQ	AX, (SP)
	0x0077 00119 (test.go:71)	CALL	runtime.newobject(SB)
	0x007c 00124 (test.go:71)	PCDATA	$0, $1
	0x007c 00124 (test.go:71)	MOVQ	8(SP), AX
	0x0081 00129 (test.go:71)	PCDATA	$1, $3
	0x0081 00129 (test.go:71)	MOVQ	AX, ""..autotmp_6+16(SP)
	0x0086 00134 (test.go:71)	LEAQ	"".fibonacci.func1(SB), CX
	0x008d 00141 (test.go:71)	PCDATA	$0, $0
	0x008d 00141 (test.go:71)	MOVQ	CX, (AX)
	0x0090 00144 (test.go:71)	PCDATA	$0, $1
	0x0090 00144 (test.go:71)	MOVQ	""..autotmp_6+16(SP), AX
	0x0095 00149 (test.go:71)	TESTB	AL, (AX)
	0x0097 00151 (test.go:71)	PCDATA	$0, $2
	0x0097 00151 (test.go:71)	PCDATA	$1, $4
	0x0097 00151 (test.go:71)	MOVQ	"".&b+24(SP), CX
	0x009c 00156 (test.go:71)	PCDATA	$0, $3
	0x009c 00156 (test.go:71)	LEAQ	8(AX), DI
	0x00a0 00160 (test.go:71)	PCDATA	$0, $-2
	0x00a0 00160 (test.go:71)	PCDATA	$1, $-2
	0x00a0 00160 (test.go:71)	CMPL	runtime.writeBarrier(SB), $0
	0x00a7 00167 (test.go:71)	JEQ	171
	0x00a9 00169 (test.go:71)	JMP	237
	0x00ab 00171 (test.go:71)	MOVQ	CX, 8(AX)
	0x00af 00175 (test.go:71)	JMP	177
	0x00b1 00177 (test.go:71)	PCDATA	$0, $4
	0x00b1 00177 (test.go:71)	PCDATA	$1, $4
	0x00b1 00177 (test.go:71)	MOVQ	""..autotmp_6+16(SP), CX
	0x00b6 00182 (test.go:71)	TESTB	AL, (CX)
	0x00b8 00184 (test.go:71)	PCDATA	$0, $2
	0x00b8 00184 (test.go:71)	PCDATA	$1, $5
	0x00b8 00184 (test.go:71)	MOVQ	"".&a+32(SP), AX
	0x00bd 00189 (test.go:71)	PCDATA	$0, $3
	0x00bd 00189 (test.go:71)	LEAQ	16(CX), DI
	0x00c1 00193 (test.go:71)	PCDATA	$0, $-2
	0x00c1 00193 (test.go:71)	PCDATA	$1, $-2
	0x00c1 00193 (test.go:71)	CMPL	runtime.writeBarrier(SB), $0
	0x00c8 00200 (test.go:71)	JEQ	204
	0x00ca 00202 (test.go:71)	JMP	230
	0x00cc 00204 (test.go:71)	MOVQ	AX, 16(CX)
	0x00d0 00208 (test.go:71)	JMP	210
	0x00d2 00210 (test.go:71)	PCDATA	$0, $1
	0x00d2 00210 (test.go:71)	PCDATA	$1, $0
	0x00d2 00210 (test.go:71)	MOVQ	""..autotmp_6+16(SP), AX
	0x00d7 00215 (test.go:71)	PCDATA	$0, $0
	0x00d7 00215 (test.go:71)	PCDATA	$1, $6
	0x00d7 00215 (test.go:71)	MOVQ	AX, "".~r0+56(SP)
	0x00dc 00220 (test.go:71)	MOVQ	40(SP), BP
	0x00e1 00225 (test.go:71)	ADDQ	$48, SP
	0x00e5 00229 (test.go:71)	RET
	0x00e6 00230 (test.go:71)	PCDATA	$0, $-2
	0x00e6 00230 (test.go:71)	PCDATA	$1, $-2
	0x00e6 00230 (test.go:71)	CALL	runtime.gcWriteBarrier(SB)
	0x00eb 00235 (test.go:71)	JMP	210
	0x00ed 00237 (test.go:71)	MOVQ	CX, AX
	0x00f0 00240 (test.go:71)	CALL	runtime.gcWriteBarrier(SB)
	0x00f5 00245 (test.go:71)	JMP	177
	0x00f7 00247 (test.go:71)	NOP
	0x00f7 00247 (test.go:68)	PCDATA	$1, $-1
	0x00f7 00247 (test.go:68)	PCDATA	$0, $-1
	0x00f7 00247 (test.go:68)	CALL	runtime.morestack_noctxt(SB)
	0x00fc 00252 (test.go:68)	JMP	0
	0x0000 65 48 8b 0c 25 00 00 00 00 48 3b 61 10 0f 86 e4  eH..%....H;a....
	0x0010 00 00 00 48 83 ec 30 48 89 6c 24 28 48 8d 6c 24  ...H..0H.l$(H.l$
	0x0020 28 48 c7 44 24 38 00 00 00 00 48 8d 05 00 00 00  (H.D$8....H.....
	0x0030 00 48 89 04 24 e8 00 00 00 00 48 8b 44 24 08 48  .H..$.....H.D$.H
	0x0040 89 44 24 20 48 c7 00 00 00 00 00 48 8d 05 00 00  .D$ H......H....
	0x0050 00 00 48 89 04 24 e8 00 00 00 00 48 8b 44 24 08  ..H..$.....H.D$.
	0x0060 48 89 44 24 18 48 c7 00 01 00 00 00 48 8d 05 00  H.D$.H......H...
	0x0070 00 00 00 48 89 04 24 e8 00 00 00 00 48 8b 44 24  ...H..$.....H.D$
	0x0080 08 48 89 44 24 10 48 8d 0d 00 00 00 00 48 89 08  .H.D$.H......H..
	0x0090 48 8b 44 24 10 84 00 48 8b 4c 24 18 48 8d 78 08  H.D$...H.L$.H.x.
	0x00a0 83 3d 00 00 00 00 00 74 02 eb 42 48 89 48 08 eb  .=.....t..BH.H..
	0x00b0 00 48 8b 4c 24 10 84 01 48 8b 44 24 20 48 8d 79  .H.L$...H.D$ H.y
	0x00c0 10 83 3d 00 00 00 00 00 74 02 eb 1a 48 89 41 10  ..=.....t...H.A.
	0x00d0 eb 00 48 8b 44 24 10 48 89 44 24 38 48 8b 6c 24  ..H.D$.H.D$8H.l$
	0x00e0 28 48 83 c4 30 c3 e8 00 00 00 00 eb e5 48 89 c8  (H..0........H..
	0x00f0 e8 00 00 00 00 eb ba e8 00 00 00 00 e9 ff fe ff  ................
	0x0100 ff                                               .
	rel 5+4 t=16 TLS+0
	rel 45+4 t=15 type.int+0
	rel 54+4 t=8 runtime.newobject+0
	rel 78+4 t=15 type.int+0
	rel 87+4 t=8 runtime.newobject+0
	rel 111+4 t=15 type.noalg.struct { F uintptr; "".b *int; "".a *int }+0
	rel 120+4 t=8 runtime.newobject+0
	rel 137+4 t=15 "".fibonacci.func1+0
	rel 162+4 t=15 runtime.writeBarrier+-1
	rel 195+4 t=15 runtime.writeBarrier+-1
	rel 231+4 t=8 runtime.gcWriteBarrier+0
	rel 241+4 t=8 runtime.gcWriteBarrier+0
	rel 248+4 t=8 runtime.morestack_noctxt+0
"".MyFloat.Abs STEXT nosplit size=64 args=0x10 locals=0x0
	0x0000 00000 (test.go:118)	TEXT	"".MyFloat.Abs(SB), NOSPLIT|ABIInternal, $0-16
	0x0000 00000 (test.go:118)	FUNCDATA	$0, gclocals·33cdeccccebe80329f1fdbee7f5874cb(SB)
	0x0000 00000 (test.go:118)	FUNCDATA	$1, gclocals·33cdeccccebe80329f1fdbee7f5874cb(SB)
	0x0000 00000 (test.go:118)	FUNCDATA	$2, gclocals·33cdeccccebe80329f1fdbee7f5874cb(SB)
	0x0000 00000 (test.go:118)	PCDATA	$0, $0
	0x0000 00000 (test.go:118)	PCDATA	$1, $0
	0x0000 00000 (test.go:118)	XORPS	X0, X0
	0x0003 00003 (test.go:118)	MOVSD	X0, "".~r0+16(SP)
	0x0009 00009 (test.go:119)	MOVSD	"".f+8(SP), X0
	0x000f 00015 (test.go:119)	XORPS	X1, X1
	0x0012 00018 (test.go:119)	UCOMISD	X0, X1
	0x0016 00022 (test.go:119)	JHI	26
	0x0018 00024 (test.go:119)	JMP	51
	0x001a 00026 (test.go:120)	MOVSD	"".f+8(SP), X0
	0x0020 00032 (test.go:120)	MOVSD	$f64.8000000000000000(SB), X1
	0x0028 00040 (test.go:120)	PXOR	X1, X0
	0x002c 00044 (test.go:120)	MOVSD	X0, "".~r0+16(SP)
	0x0032 00050 (test.go:120)	RET
	0x0033 00051 (test.go:122)	MOVSD	"".f+8(SP), X0
	0x0039 00057 (test.go:122)	MOVSD	X0, "".~r0+16(SP)
	0x003f 00063 (test.go:122)	RET
	0x0000 0f 57 c0 f2 0f 11 44 24 10 f2 0f 10 44 24 08 0f  .W....D$....D$..
	0x0010 57 c9 66 0f 2e c8 77 02 eb 19 f2 0f 10 44 24 08  W.f...w......D$.
	0x0020 f2 0f 10 0d 00 00 00 00 66 0f ef c1 f2 0f 11 44  ........f......D
	0x0030 24 10 c3 f2 0f 10 44 24 08 f2 0f 11 44 24 10 c3  $.....D$....D$..
	rel 36+4 t=15 $f64.8000000000000000+0
"".Vertex.Abs STEXT nosplit size=76 args=0x18 locals=0x10
	0x0000 00000 (test.go:129)	TEXT	"".Vertex.Abs(SB), NOSPLIT|ABIInternal, $16-24
	0x0000 00000 (test.go:129)	SUBQ	$16, SP
	0x0004 00004 (test.go:129)	MOVQ	BP, 8(SP)
	0x0009 00009 (test.go:129)	LEAQ	8(SP), BP
	0x000e 00014 (test.go:129)	FUNCDATA	$0, gclocals·33cdeccccebe80329f1fdbee7f5874cb(SB)
	0x000e 00014 (test.go:129)	FUNCDATA	$1, gclocals·33cdeccccebe80329f1fdbee7f5874cb(SB)
	0x000e 00014 (test.go:129)	FUNCDATA	$2, gclocals·33cdeccccebe80329f1fdbee7f5874cb(SB)
	0x000e 00014 (test.go:129)	PCDATA	$0, $0
	0x000e 00014 (test.go:129)	PCDATA	$1, $0
	0x000e 00014 (test.go:129)	XORPS	X0, X0
	0x0011 00017 (test.go:129)	MOVSD	X0, "".~r0+40(SP)
	0x0017 00023 (test.go:130)	MOVSD	"".v+24(SP), X0
	0x001d 00029 (test.go:130)	MULSD	"".v+24(SP), X0
	0x0023 00035 (test.go:130)	MOVSD	"".v+32(SP), X1
	0x0029 00041 (test.go:130)	MULSD	"".v+32(SP), X1
	0x002f 00047 (test.go:130)	ADDSD	X1, X0
	0x0033 00051 (test.go:130)	SQRTSD	X0, X0
	0x0037 00055 (test.go:130)	MOVSD	X0, ""..autotmp_2(SP)
	0x003c 00060 (test.go:130)	MOVSD	X0, "".~r0+40(SP)
	0x0042 00066 (test.go:130)	MOVQ	8(SP), BP
	0x0047 00071 (test.go:130)	ADDQ	$16, SP
	0x004b 00075 (test.go:130)	RET
	0x0000 48 83 ec 10 48 89 6c 24 08 48 8d 6c 24 08 0f 57  H...H.l$.H.l$..W
	0x0010 c0 f2 0f 11 44 24 28 f2 0f 10 44 24 18 f2 0f 59  ....D$(...D$...Y
	0x0020 44 24 18 f2 0f 10 4c 24 20 f2 0f 59 4c 24 20 f2  D$....L$ ..YL$ .
	0x0030 0f 58 c1 f2 0f 51 c0 f2 0f 11 04 24 f2 0f 11 44  .X...Q.....$...D
	0x0040 24 28 48 8b 6c 24 08 48 83 c4 10 c3              $(H.l$.H....
"".fibonacci.func1 STEXT nosplit size=112 args=0x8 locals=0x20
	0x0000 00000 (test.go:71)	TEXT	"".fibonacci.func1(SB), NOSPLIT|NEEDCTXT|ABIInternal, $32-8
	0x0000 00000 (test.go:71)	SUBQ	$32, SP
	0x0004 00004 (test.go:71)	MOVQ	BP, 24(SP)
	0x0009 00009 (test.go:71)	LEAQ	24(SP), BP
	0x000e 00014 (test.go:71)	FUNCDATA	$0, gclocals·7d2d5fca80364273fb07d5820a76fef4(SB)
	0x000e 00014 (test.go:71)	FUNCDATA	$1, gclocals·bfec7e55b3f043d1941c093912808913(SB)
	0x000e 00014 (test.go:71)	FUNCDATA	$2, gclocals·db7e3e207db6753e4226466f2f4a02f1(SB)
	0x000e 00014 (test.go:71)	PCDATA	$0, $2
	0x000e 00014 (test.go:71)	PCDATA	$1, $0
	0x000e 00014 (test.go:71)	MOVQ	8(DX), AX
	0x0012 00018 (test.go:71)	PCDATA	$0, $1
	0x0012 00018 (test.go:71)	PCDATA	$1, $1
	0x0012 00018 (test.go:71)	MOVQ	AX, "".&b+8(SP)
	0x0017 00023 (test.go:71)	PCDATA	$0, $3
	0x0017 00023 (test.go:71)	MOVQ	16(DX), AX
	0x001b 00027 (test.go:71)	PCDATA	$0, $0
	0x001b 00027 (test.go:71)	PCDATA	$1, $2
	0x001b 00027 (test.go:71)	MOVQ	AX, "".&a+16(SP)
	0x0020 00032 (test.go:71)	MOVQ	$0, "".~r0+40(SP)
	0x0029 00041 (test.go:72)	PCDATA	$0, $3
	0x0029 00041 (test.go:72)	MOVQ	"".&b+8(SP), AX
	0x002e 00046 (test.go:72)	PCDATA	$0, $0
	0x002e 00046 (test.go:72)	MOVQ	(AX), AX
	0x0031 00049 (test.go:72)	MOVQ	AX, "".temp(SP)
	0x0035 00053 (test.go:73)	PCDATA	$0, $3
	0x0035 00053 (test.go:73)	MOVQ	"".&b+8(SP), AX
	0x003a 00058 (test.go:73)	PCDATA	$0, $4
	0x003a 00058 (test.go:73)	MOVQ	"".&a+16(SP), CX
	0x003f 00063 (test.go:73)	PCDATA	$0, $3
	0x003f 00063 (test.go:73)	MOVQ	(CX), CX
	0x0042 00066 (test.go:73)	PCDATA	$0, $2
	0x0042 00066 (test.go:73)	MOVQ	"".&b+8(SP), DX
	0x0047 00071 (test.go:73)	PCDATA	$0, $3
	0x0047 00071 (test.go:73)	ADDQ	(DX), CX
	0x004a 00074 (test.go:73)	PCDATA	$0, $0
	0x004a 00074 (test.go:73)	MOVQ	CX, (AX)
	0x004d 00077 (test.go:74)	PCDATA	$0, $3
	0x004d 00077 (test.go:74)	PCDATA	$1, $1
	0x004d 00077 (test.go:74)	MOVQ	"".&a+16(SP), AX
	0x0052 00082 (test.go:74)	MOVQ	"".temp(SP), CX
	0x0056 00086 (test.go:74)	PCDATA	$0, $0
	0x0056 00086 (test.go:74)	MOVQ	CX, (AX)
	0x0059 00089 (test.go:75)	PCDATA	$0, $3
	0x0059 00089 (test.go:75)	PCDATA	$1, $0
	0x0059 00089 (test.go:75)	MOVQ	"".&b+8(SP), AX
	0x005e 00094 (test.go:75)	PCDATA	$0, $0
	0x005e 00094 (test.go:75)	MOVQ	(AX), AX
	0x0061 00097 (test.go:75)	MOVQ	AX, "".~r0+40(SP)
	0x0066 00102 (test.go:75)	MOVQ	24(SP), BP
	0x006b 00107 (test.go:75)	ADDQ	$32, SP
	0x006f 00111 (test.go:75)	RET
	0x0000 48 83 ec 20 48 89 6c 24 18 48 8d 6c 24 18 48 8b  H.. H.l$.H.l$.H.
	0x0010 42 08 48 89 44 24 08 48 8b 42 10 48 89 44 24 10  B.H.D$.H.B.H.D$.
	0x0020 48 c7 44 24 28 00 00 00 00 48 8b 44 24 08 48 8b  H.D$(....H.D$.H.
	0x0030 00 48 89 04 24 48 8b 44 24 08 48 8b 4c 24 10 48  .H..$H.D$.H.L$.H
	0x0040 8b 09 48 8b 54 24 08 48 03 0a 48 89 08 48 8b 44  ..H.T$.H..H..H.D
	0x0050 24 10 48 8b 0c 24 48 89 08 48 8b 44 24 08 48 8b  $.H..$H..H.D$.H.
	0x0060 00 48 89 44 24 28 48 8b 6c 24 18 48 83 c4 20 c3  .H.D$(H.l$.H.. .
"".Abser.Abs STEXT dupok size=119 args=0x18 locals=0x20
	0x0000 00000 (<autogenerated>:1)	TEXT	"".Abser.Abs(SB), DUPOK|WRAPPER|ABIInternal, $32-24
	0x0000 00000 (<autogenerated>:1)	MOVQ	(TLS), CX
	0x0009 00009 (<autogenerated>:1)	CMPQ	SP, 16(CX)
	0x000d 00013 (<autogenerated>:1)	JLS	97
	0x000f 00015 (<autogenerated>:1)	SUBQ	$32, SP
	0x0013 00019 (<autogenerated>:1)	MOVQ	BP, 24(SP)
	0x0018 00024 (<autogenerated>:1)	LEAQ	24(SP), BP
	0x001d 00029 (<autogenerated>:1)	MOVQ	32(CX), BX
	0x0021 00033 (<autogenerated>:1)	TESTQ	BX, BX
	0x0024 00036 (<autogenerated>:1)	JNE	104
	0x0026 00038 (<autogenerated>:1)	NOP
	0x0026 00038 (<autogenerated>:1)	FUNCDATA	$0, gclocals·09cf9819fc716118c209c2d2155a3632(SB)
	0x0026 00038 (<autogenerated>:1)	FUNCDATA	$1, gclocals·69c1753bd5f81501d95132d08af04464(SB)
	0x0026 00038 (<autogenerated>:1)	FUNCDATA	$2, gclocals·568470801006e5c0dc3947ea998fe279(SB)
	0x0026 00038 (<autogenerated>:1)	PCDATA	$0, $0
	0x0026 00038 (<autogenerated>:1)	PCDATA	$1, $0
	0x0026 00038 (<autogenerated>:1)	XORPS	X0, X0
	0x0029 00041 (<autogenerated>:1)	MOVSD	X0, "".~r0+56(SP)
	0x002f 00047 (<autogenerated>:1)	MOVQ	""..this+40(SP), AX
	0x0034 00052 (<autogenerated>:1)	TESTB	AL, (AX)
	0x0036 00054 (<autogenerated>:1)	PCDATA	$0, $1
	0x0036 00054 (<autogenerated>:1)	PCDATA	$1, $1
	0x0036 00054 (<autogenerated>:1)	MOVQ	""..this+48(SP), CX
	0x003b 00059 (<autogenerated>:1)	MOVQ	24(AX), AX
	0x003f 00063 (<autogenerated>:1)	PCDATA	$0, $0
	0x003f 00063 (<autogenerated>:1)	MOVQ	CX, (SP)
	0x0043 00067 (<autogenerated>:1)	CALL	AX
	0x0045 00069 (<autogenerated>:1)	MOVSD	8(SP), X0
	0x004b 00075 (<autogenerated>:1)	MOVSD	X0, ""..autotmp_2+16(SP)
	0x0051 00081 (<autogenerated>:1)	MOVSD	X0, "".~r0+56(SP)
	0x0057 00087 (<autogenerated>:1)	MOVQ	24(SP), BP
	0x005c 00092 (<autogenerated>:1)	ADDQ	$32, SP
	0x0060 00096 (<autogenerated>:1)	RET
	0x0061 00097 (<autogenerated>:1)	NOP
	0x0061 00097 (<autogenerated>:1)	PCDATA	$1, $-1
	0x0061 00097 (<autogenerated>:1)	PCDATA	$0, $-1
	0x0061 00097 (<autogenerated>:1)	CALL	runtime.morestack_noctxt(SB)
	0x0066 00102 (<autogenerated>:1)	JMP	0
	0x0068 00104 (<autogenerated>:1)	LEAQ	40(SP), DI
	0x006d 00109 (<autogenerated>:1)	CMPQ	(BX), DI
	0x0070 00112 (<autogenerated>:1)	JNE	38
	0x0072 00114 (<autogenerated>:1)	MOVQ	SP, (BX)
	0x0075 00117 (<autogenerated>:1)	JMP	38
	0x0000 65 48 8b 0c 25 00 00 00 00 48 3b 61 10 76 52 48  eH..%....H;a.vRH
	0x0010 83 ec 20 48 89 6c 24 18 48 8d 6c 24 18 48 8b 59  .. H.l$.H.l$.H.Y
	0x0020 20 48 85 db 75 42 0f 57 c0 f2 0f 11 44 24 38 48   H..uB.W....D$8H
	0x0030 8b 44 24 28 84 00 48 8b 4c 24 30 48 8b 40 18 48  .D$(..H.L$0H.@.H
	0x0040 89 0c 24 ff d0 f2 0f 10 44 24 08 f2 0f 11 44 24  ..$.....D$....D$
	0x0050 10 f2 0f 11 44 24 38 48 8b 6c 24 18 48 83 c4 20  ....D$8H.l$.H.. 
	0x0060 c3 e8 00 00 00 00 eb 98 48 8d 7c 24 28 48 39 3b  ........H.|$(H9;
	0x0070 75 b4 48 89 23 eb af                             u.H.#..
	rel 5+4 t=16 TLS+0
	rel 67+0 t=11 +0
	rel 98+4 t=8 runtime.morestack_noctxt+0
"".(*MyFloat).Abs STEXT dupok size=140 args=0x10 locals=0x28
	0x0000 00000 (<autogenerated>:1)	TEXT	"".(*MyFloat).Abs(SB), DUPOK|WRAPPER|ABIInternal, $40-16
	0x0000 00000 (<autogenerated>:1)	MOVQ	(TLS), CX
	0x0009 00009 (<autogenerated>:1)	CMPQ	SP, 16(CX)
	0x000d 00013 (<autogenerated>:1)	JLS	118
	0x000f 00015 (<autogenerated>:1)	SUBQ	$40, SP
	0x0013 00019 (<autogenerated>:1)	MOVQ	BP, 32(SP)
	0x0018 00024 (<autogenerated>:1)	LEAQ	32(SP), BP
	0x001d 00029 (<autogenerated>:1)	MOVQ	32(CX), BX
	0x0021 00033 (<autogenerated>:1)	TESTQ	BX, BX
	0x0024 00036 (<autogenerated>:1)	JNE	125
	0x0026 00038 (<autogenerated>:1)	NOP
	0x0026 00038 (<autogenerated>:1)	FUNCDATA	$0, gclocals·1a65e721a2ccc325b382662e7ffee780(SB)
	0x0026 00038 (<autogenerated>:1)	FUNCDATA	$1, gclocals·69c1753bd5f81501d95132d08af04464(SB)
	0x0026 00038 (<autogenerated>:1)	FUNCDATA	$2, gclocals·9fb7f0986f647f17cb53dda1484e0f7a(SB)
	0x0026 00038 (<autogenerated>:1)	PCDATA	$0, $0
	0x0026 00038 (<autogenerated>:1)	PCDATA	$1, $0
	0x0026 00038 (<autogenerated>:1)	XORPS	X0, X0
	0x0029 00041 (<autogenerated>:1)	MOVSD	X0, "".~r0+56(SP)
	0x002f 00047 (<autogenerated>:1)	CMPQ	""..this+48(SP), $0
	0x0035 00053 (<autogenerated>:1)	JNE	57
	0x0037 00055 (<autogenerated>:1)	JMP	112
	0x0039 00057 (<autogenerated>:1)	PCDATA	$0, $1
	0x0039 00057 (<autogenerated>:1)	PCDATA	$1, $1
	0x0039 00057 (<autogenerated>:1)	MOVQ	""..this+48(SP), AX
	0x003e 00062 (<autogenerated>:1)	TESTB	AL, (AX)
	0x0040 00064 (<autogenerated>:1)	PCDATA	$0, $0
	0x0040 00064 (<autogenerated>:1)	MOVSD	(AX), X0
	0x0044 00068 (<autogenerated>:1)	MOVSD	X0, ""..autotmp_3+16(SP)
	0x004a 00074 (<autogenerated>:1)	MOVSD	X0, (SP)
	0x004f 00079 (<autogenerated>:1)	CALL	"".MyFloat.Abs(SB)
	0x0054 00084 (<autogenerated>:1)	MOVSD	8(SP), X0
	0x005a 00090 (<autogenerated>:1)	MOVSD	X0, ""..autotmp_2+24(SP)
	0x0060 00096 (<autogenerated>:1)	MOVSD	X0, "".~r0+56(SP)
	0x0066 00102 (<autogenerated>:1)	MOVQ	32(SP), BP
	0x006b 00107 (<autogenerated>:1)	ADDQ	$40, SP
	0x006f 00111 (<autogenerated>:1)	RET
	0x0070 00112 (<autogenerated>:1)	CALL	runtime.panicwrap(SB)
	0x0075 00117 (<autogenerated>:1)	XCHGL	AX, AX
	0x0076 00118 (<autogenerated>:1)	NOP
	0x0076 00118 (<autogenerated>:1)	PCDATA	$1, $-1
	0x0076 00118 (<autogenerated>:1)	PCDATA	$0, $-1
	0x0076 00118 (<autogenerated>:1)	CALL	runtime.morestack_noctxt(SB)
	0x007b 00123 (<autogenerated>:1)	JMP	0
	0x007d 00125 (<autogenerated>:1)	LEAQ	48(SP), DI
	0x0082 00130 (<autogenerated>:1)	CMPQ	(BX), DI
	0x0085 00133 (<autogenerated>:1)	JNE	38
	0x0087 00135 (<autogenerated>:1)	MOVQ	SP, (BX)
	0x008a 00138 (<autogenerated>:1)	JMP	38
	0x0000 65 48 8b 0c 25 00 00 00 00 48 3b 61 10 76 67 48  eH..%....H;a.vgH
	0x0010 83 ec 28 48 89 6c 24 20 48 8d 6c 24 20 48 8b 59  ..(H.l$ H.l$ H.Y
	0x0020 20 48 85 db 75 57 0f 57 c0 f2 0f 11 44 24 38 48   H..uW.W....D$8H
	0x0030 83 7c 24 30 00 75 02 eb 37 48 8b 44 24 30 84 00  .|$0.u..7H.D$0..
	0x0040 f2 0f 10 00 f2 0f 11 44 24 10 f2 0f 11 04 24 e8  .......D$.....$.
	0x0050 00 00 00 00 f2 0f 10 44 24 08 f2 0f 11 44 24 18  .......D$....D$.
	0x0060 f2 0f 11 44 24 38 48 8b 6c 24 20 48 83 c4 28 c3  ...D$8H.l$ H..(.
	0x0070 e8 00 00 00 00 90 e8 00 00 00 00 eb 83 48 8d 7c  .............H.|
	0x0080 24 30 48 39 3b 75 9f 48 89 23 eb 9a              $0H9;u.H.#..
	rel 5+4 t=16 TLS+0
	rel 80+4 t=8 "".MyFloat.Abs+0
	rel 113+4 t=8 runtime.panicwrap+0
	rel 119+4 t=8 runtime.morestack_noctxt+0
type..hash."".Vertex STEXT dupok size=145 args=0x18 locals=0x30
	0x0000 00000 (<autogenerated>:1)	TEXT	type..hash."".Vertex(SB), DUPOK|ABIInternal, $48-24
	0x0000 00000 (<autogenerated>:1)	MOVQ	(TLS), CX
	0x0009 00009 (<autogenerated>:1)	CMPQ	SP, 16(CX)
	0x000d 00013 (<autogenerated>:1)	JLS	135
	0x000f 00015 (<autogenerated>:1)	SUBQ	$48, SP
	0x0013 00019 (<autogenerated>:1)	MOVQ	BP, 40(SP)
	0x0018 00024 (<autogenerated>:1)	LEAQ	40(SP), BP
	0x001d 00029 (<autogenerated>:1)	FUNCDATA	$0, gclocals·1a65e721a2ccc325b382662e7ffee780(SB)
	0x001d 00029 (<autogenerated>:1)	FUNCDATA	$1, gclocals·2589ca35330fc0fce83503f4569854a0(SB)
	0x001d 00029 (<autogenerated>:1)	FUNCDATA	$2, gclocals·9fb7f0986f647f17cb53dda1484e0f7a(SB)
	0x001d 00029 (<autogenerated>:1)	PCDATA	$0, $0
	0x001d 00029 (<autogenerated>:1)	PCDATA	$1, $0
	0x001d 00029 (<autogenerated>:1)	MOVQ	$0, "".~r2+72(SP)
	0x0026 00038 (<autogenerated>:1)	PCDATA	$0, $1
	0x0026 00038 (<autogenerated>:1)	MOVQ	"".p+56(SP), AX
	0x002b 00043 (<autogenerated>:1)	MOVQ	AX, ""..autotmp_3+32(SP)
	0x0030 00048 (<autogenerated>:1)	PCDATA	$0, $0
	0x0030 00048 (<autogenerated>:1)	MOVQ	AX, (SP)
	0x0034 00052 (<autogenerated>:1)	MOVQ	"".h+64(SP), AX
	0x0039 00057 (<autogenerated>:1)	MOVQ	AX, 8(SP)
	0x003e 00062 (<autogenerated>:1)	CALL	runtime.f64hash(SB)
	0x0043 00067 (<autogenerated>:1)	MOVQ	16(SP), AX
	0x0048 00072 (<autogenerated>:1)	MOVQ	AX, "".h+64(SP)
	0x004d 00077 (<autogenerated>:1)	PCDATA	$0, $1
	0x004d 00077 (<autogenerated>:1)	PCDATA	$1, $1
	0x004d 00077 (<autogenerated>:1)	MOVQ	"".p+56(SP), AX
	0x0052 00082 (<autogenerated>:1)	ADDQ	$8, AX
	0x0056 00086 (<autogenerated>:1)	MOVQ	AX, ""..autotmp_4+24(SP)
	0x005b 00091 (<autogenerated>:1)	PCDATA	$0, $0
	0x005b 00091 (<autogenerated>:1)	MOVQ	AX, (SP)
	0x005f 00095 (<autogenerated>:1)	MOVQ	"".h+64(SP), AX
	0x0064 00100 (<autogenerated>:1)	MOVQ	AX, 8(SP)
	0x0069 00105 (<autogenerated>:1)	CALL	runtime.f64hash(SB)
	0x006e 00110 (<autogenerated>:1)	MOVQ	16(SP), AX
	0x0073 00115 (<autogenerated>:1)	MOVQ	AX, "".h+64(SP)
	0x0078 00120 (<autogenerated>:1)	MOVQ	AX, "".~r2+72(SP)
	0x007d 00125 (<autogenerated>:1)	MOVQ	40(SP), BP
	0x0082 00130 (<autogenerated>:1)	ADDQ	$48, SP
	0x0086 00134 (<autogenerated>:1)	RET
	0x0087 00135 (<autogenerated>:1)	NOP
	0x0087 00135 (<autogenerated>:1)	PCDATA	$1, $-1
	0x0087 00135 (<autogenerated>:1)	PCDATA	$0, $-1
	0x0087 00135 (<autogenerated>:1)	CALL	runtime.morestack_noctxt(SB)
	0x008c 00140 (<autogenerated>:1)	JMP	0
	0x0000 65 48 8b 0c 25 00 00 00 00 48 3b 61 10 76 78 48  eH..%....H;a.vxH
	0x0010 83 ec 30 48 89 6c 24 28 48 8d 6c 24 28 48 c7 44  ..0H.l$(H.l$(H.D
	0x0020 24 48 00 00 00 00 48 8b 44 24 38 48 89 44 24 20  $H....H.D$8H.D$ 
	0x0030 48 89 04 24 48 8b 44 24 40 48 89 44 24 08 e8 00  H..$H.D$@H.D$...
	0x0040 00 00 00 48 8b 44 24 10 48 89 44 24 40 48 8b 44  ...H.D$.H.D$@H.D
	0x0050 24 38 48 83 c0 08 48 89 44 24 18 48 89 04 24 48  $8H...H.D$.H..$H
	0x0060 8b 44 24 40 48 89 44 24 08 e8 00 00 00 00 48 8b  .D$@H.D$......H.
	0x0070 44 24 10 48 89 44 24 40 48 89 44 24 48 48 8b 6c  D$.H.D$@H.D$HH.l
	0x0080 24 28 48 83 c4 30 c3 e8 00 00 00 00 e9 6f ff ff  $(H..0.......o..
	0x0090 ff                                               .
	rel 5+4 t=16 TLS+0
	rel 63+4 t=8 runtime.f64hash+0
	rel 106+4 t=8 runtime.f64hash+0
	rel 136+4 t=8 runtime.morestack_noctxt+0
type..eq."".Vertex STEXT dupok nosplit size=122 args=0x18 locals=0x10
	0x0000 00000 (<autogenerated>:1)	TEXT	type..eq."".Vertex(SB), DUPOK|NOSPLIT|ABIInternal, $16-24
	0x0000 00000 (<autogenerated>:1)	SUBQ	$16, SP
	0x0004 00004 (<autogenerated>:1)	MOVQ	BP, 8(SP)
	0x0009 00009 (<autogenerated>:1)	LEAQ	8(SP), BP
	0x000e 00014 (<autogenerated>:1)	FUNCDATA	$0, gclocals·fdbf1f5761f6d17e8ae3f0aaecb6a3c5(SB)
	0x000e 00014 (<autogenerated>:1)	FUNCDATA	$1, gclocals·7d2d5fca80364273fb07d5820a76fef4(SB)
	0x000e 00014 (<autogenerated>:1)	FUNCDATA	$2, gclocals·9fb7f0986f647f17cb53dda1484e0f7a(SB)
	0x000e 00014 (<autogenerated>:1)	PCDATA	$0, $0
	0x000e 00014 (<autogenerated>:1)	PCDATA	$1, $0
	0x000e 00014 (<autogenerated>:1)	MOVB	$0, "".~r2+40(SP)
	0x0013 00019 (<autogenerated>:1)	PCDATA	$0, $1
	0x0013 00019 (<autogenerated>:1)	MOVQ	"".p+24(SP), AX
	0x0018 00024 (<autogenerated>:1)	PCDATA	$0, $0
	0x0018 00024 (<autogenerated>:1)	MOVSD	(AX), X0
	0x001c 00028 (<autogenerated>:1)	PCDATA	$0, $1
	0x001c 00028 (<autogenerated>:1)	MOVQ	"".q+32(SP), AX
	0x0021 00033 (<autogenerated>:1)	PCDATA	$0, $0
	0x0021 00033 (<autogenerated>:1)	MOVSD	(AX), X1
	0x0025 00037 (<autogenerated>:1)	UCOMISD	X1, X0
	0x0029 00041 (<autogenerated>:1)	SETEQ	CL
	0x002c 00044 (<autogenerated>:1)	SETPC	AL
	0x002f 00047 (<autogenerated>:1)	ANDL	AX, CX
	0x0031 00049 (<autogenerated>:1)	MOVB	CL, ""..autotmp_3+7(SP)
	0x0035 00053 (<autogenerated>:1)	UCOMISD	X1, X0
	0x0039 00057 (<autogenerated>:1)	JNE	120
	0x003b 00059 (<autogenerated>:1)	JPC	63
	0x003d 00061 (<autogenerated>:1)	JMP	120
	0x003f 00063 (<autogenerated>:1)	PCDATA	$0, $1
	0x003f 00063 (<autogenerated>:1)	PCDATA	$1, $1
	0x003f 00063 (<autogenerated>:1)	MOVQ	"".p+24(SP), AX
	0x0044 00068 (<autogenerated>:1)	PCDATA	$0, $0
	0x0044 00068 (<autogenerated>:1)	MOVSD	8(AX), X0
	0x0049 00073 (<autogenerated>:1)	PCDATA	$0, $1
	0x0049 00073 (<autogenerated>:1)	PCDATA	$1, $2
	0x0049 00073 (<autogenerated>:1)	MOVQ	"".q+32(SP), AX
	0x004e 00078 (<autogenerated>:1)	PCDATA	$0, $0
	0x004e 00078 (<autogenerated>:1)	MOVSD	8(AX), X1
	0x0053 00083 (<autogenerated>:1)	UCOMISD	X1, X0
	0x0057 00087 (<autogenerated>:1)	SETEQ	CL
	0x005a 00090 (<autogenerated>:1)	SETPC	AL
	0x005d 00093 (<autogenerated>:1)	ANDL	AX, CX
	0x005f 00095 (<autogenerated>:1)	MOVB	CL, ""..autotmp_3+7(SP)
	0x0063 00099 (<autogenerated>:1)	JMP	101
	0x0065 00101 (<autogenerated>:1)	MOVBLZX	""..autotmp_3+7(SP), AX
	0x006a 00106 (<autogenerated>:1)	MOVB	AL, "".~r2+40(SP)
	0x006e 00110 (<autogenerated>:1)	MOVQ	8(SP), BP
	0x0073 00115 (<autogenerated>:1)	ADDQ	$16, SP
	0x0077 00119 (<autogenerated>:1)	RET
	0x0078 00120 (<autogenerated>:1)	PCDATA	$0, $-2
	0x0078 00120 (<autogenerated>:1)	PCDATA	$1, $-2
	0x0078 00120 (<autogenerated>:1)	JMP	101
	0x0000 48 83 ec 10 48 89 6c 24 08 48 8d 6c 24 08 c6 44  H...H.l$.H.l$..D
	0x0010 24 28 00 48 8b 44 24 18 f2 0f 10 00 48 8b 44 24  $(.H.D$.....H.D$
	0x0020 20 f2 0f 10 08 66 0f 2e c1 0f 94 c1 0f 9b c0 21   ....f.........!
	0x0030 c1 88 4c 24 07 66 0f 2e c1 75 3d 7b 02 eb 39 48  ..L$.f...u={..9H
	0x0040 8b 44 24 18 f2 0f 10 40 08 48 8b 44 24 20 f2 0f  .D$....@.H.D$ ..
	0x0050 10 48 08 66 0f 2e c1 0f 94 c1 0f 9b c0 21 c1 88  .H.f.........!..
	0x0060 4c 24 07 eb 00 0f b6 44 24 07 88 44 24 28 48 8b  L$.....D$..D$(H.
	0x0070 6c 24 08 48 83 c4 10 c3 eb eb                    l$.H......
"".(*Vertex).Abs STEXT dupok size=160 args=0x10 locals=0x38
	0x0000 00000 (<autogenerated>:1)	TEXT	"".(*Vertex).Abs(SB), DUPOK|WRAPPER|ABIInternal, $56-16
	0x0000 00000 (<autogenerated>:1)	MOVQ	(TLS), CX
	0x0009 00009 (<autogenerated>:1)	CMPQ	SP, 16(CX)
	0x000d 00013 (<autogenerated>:1)	JLS	135
	0x000f 00015 (<autogenerated>:1)	SUBQ	$56, SP
	0x0013 00019 (<autogenerated>:1)	MOVQ	BP, 48(SP)
	0x0018 00024 (<autogenerated>:1)	LEAQ	48(SP), BP
	0x001d 00029 (<autogenerated>:1)	MOVQ	32(CX), BX
	0x0021 00033 (<autogenerated>:1)	TESTQ	BX, BX
	0x0024 00036 (<autogenerated>:1)	JNE	145
	0x0026 00038 (<autogenerated>:1)	NOP
	0x0026 00038 (<autogenerated>:1)	FUNCDATA	$0, gclocals·1a65e721a2ccc325b382662e7ffee780(SB)
	0x0026 00038 (<autogenerated>:1)	FUNCDATA	$1, gclocals·69c1753bd5f81501d95132d08af04464(SB)
	0x0026 00038 (<autogenerated>:1)	FUNCDATA	$2, gclocals·9fb7f0986f647f17cb53dda1484e0f7a(SB)
	0x0026 00038 (<autogenerated>:1)	PCDATA	$0, $0
	0x0026 00038 (<autogenerated>:1)	PCDATA	$1, $0
	0x0026 00038 (<autogenerated>:1)	XORPS	X0, X0
	0x0029 00041 (<autogenerated>:1)	MOVSD	X0, "".~r0+72(SP)
	0x002f 00047 (<autogenerated>:1)	CMPQ	""..this+64(SP), $0
	0x0035 00053 (<autogenerated>:1)	JNE	57
	0x0037 00055 (<autogenerated>:1)	JMP	129
	0x0039 00057 (<autogenerated>:1)	PCDATA	$0, $1
	0x0039 00057 (<autogenerated>:1)	PCDATA	$1, $1
	0x0039 00057 (<autogenerated>:1)	MOVQ	""..this+64(SP), AX
	0x003e 00062 (<autogenerated>:1)	TESTB	AL, (AX)
	0x0040 00064 (<autogenerated>:1)	MOVSD	(AX), X0
	0x0044 00068 (<autogenerated>:1)	PCDATA	$0, $0
	0x0044 00068 (<autogenerated>:1)	MOVSD	8(AX), X1
	0x0049 00073 (<autogenerated>:1)	MOVSD	X0, ""..autotmp_3+32(SP)
	0x004f 00079 (<autogenerated>:1)	MOVSD	X1, ""..autotmp_3+40(SP)
	0x0055 00085 (<autogenerated>:1)	MOVSD	X0, (SP)
	0x005a 00090 (<autogenerated>:1)	MOVSD	X1, 8(SP)
	0x0060 00096 (<autogenerated>:1)	CALL	"".Vertex.Abs(SB)
	0x0065 00101 (<autogenerated>:1)	MOVSD	16(SP), X0
	0x006b 00107 (<autogenerated>:1)	MOVSD	X0, ""..autotmp_2+24(SP)
	0x0071 00113 (<autogenerated>:1)	MOVSD	X0, "".~r0+72(SP)
	0x0077 00119 (<autogenerated>:1)	MOVQ	48(SP), BP
	0x007c 00124 (<autogenerated>:1)	ADDQ	$56, SP
	0x0080 00128 (<autogenerated>:1)	RET
	0x0081 00129 (<autogenerated>:1)	CALL	runtime.panicwrap(SB)
	0x0086 00134 (<autogenerated>:1)	XCHGL	AX, AX
	0x0087 00135 (<autogenerated>:1)	NOP
	0x0087 00135 (<autogenerated>:1)	PCDATA	$1, $-1
	0x0087 00135 (<autogenerated>:1)	PCDATA	$0, $-1
	0x0087 00135 (<autogenerated>:1)	CALL	runtime.morestack_noctxt(SB)
	0x008c 00140 (<autogenerated>:1)	JMP	0
	0x0091 00145 (<autogenerated>:1)	LEAQ	64(SP), DI
	0x0096 00150 (<autogenerated>:1)	CMPQ	(BX), DI
	0x0099 00153 (<autogenerated>:1)	JNE	38
	0x009b 00155 (<autogenerated>:1)	MOVQ	SP, (BX)
	0x009e 00158 (<autogenerated>:1)	JMP	38
	0x0000 65 48 8b 0c 25 00 00 00 00 48 3b 61 10 76 78 48  eH..%....H;a.vxH
	0x0010 83 ec 38 48 89 6c 24 30 48 8d 6c 24 30 48 8b 59  ..8H.l$0H.l$0H.Y
	0x0020 20 48 85 db 75 6b 0f 57 c0 f2 0f 11 44 24 48 48   H..uk.W....D$HH
	0x0030 83 7c 24 40 00 75 02 eb 48 48 8b 44 24 40 84 00  .|$@.u..HH.D$@..
	0x0040 f2 0f 10 00 f2 0f 10 48 08 f2 0f 11 44 24 20 f2  .......H....D$ .
	0x0050 0f 11 4c 24 28 f2 0f 11 04 24 f2 0f 11 4c 24 08  ..L$(....$...L$.
	0x0060 e8 00 00 00 00 f2 0f 10 44 24 10 f2 0f 11 44 24  ........D$....D$
	0x0070 18 f2 0f 11 44 24 48 48 8b 6c 24 30 48 83 c4 38  ....D$HH.l$0H..8
	0x0080 c3 e8 00 00 00 00 90 e8 00 00 00 00 e9 6f ff ff  .............o..
	0x0090 ff 48 8d 7c 24 40 48 39 3b 75 8b 48 89 23 eb 86  .H.|$@H9;u.H.#..
	rel 5+4 t=16 TLS+0
	rel 97+4 t=8 "".Vertex.Abs+0
	rel 130+4 t=8 runtime.panicwrap+0
	rel 136+4 t=8 runtime.morestack_noctxt+0
go.cuinfo.packagename. SDWARFINFO dupok size=0
	0x0000 6d 61 69 6e                                      main
go.loc.os.(*File).close SDWARFLOC dupok size=0
go.info.os.(*File).close SDWARFINFO dupok size=72
	0x0000 03 6f 73 2e 28 2a 46 69 6c 65 29 2e 63 6c 6f 73  .os.(*File).clos
	0x0010 65 00 00 00 00 00 00 00 00 00 00 00 00 00 00 00  e...............
	0x0020 00 00 01 9c 00 00 00 00 01 0f 2e 74 68 69 73 00  ...........this.
	0x0030 00 01 00 00 00 00 01 9c 0f 7e 72 30 00 01 ec 01  .........~r0....
	0x0040 00 00 00 00 02 91 08 00                          ........
	rel 18+8 t=1 os.(*File).close+0
	rel 26+8 t=1 os.(*File).close+28
	rel 36+4 t=29 gofile..<autogenerated>+0
	rel 50+4 t=28 go.info.*os.File+0
	rel 64+4 t=28 go.info.error+0
go.range.os.(*File).close SDWARFRANGE dupok size=0
go.isstmt.os.(*File).close SDWARFMISC dupok size=0
	0x0000 04 03 01 14 02 05 00                             .......
go.loc."".(*rot13Reader).Read SDWARFLOC dupok size=0
go.info."".(*rot13Reader).Read SDWARFINFO dupok size=101
	0x0000 03 22 22 2e 28 2a 72 6f 74 31 33 52 65 61 64 65  ."".(*rot13Reade
	0x0010 72 29 2e 52 65 61 64 00 00 00 00 00 00 00 00 00  r).Read.........
	0x0020 00 00 00 00 00 00 00 00 01 9c 00 00 00 00 01 0f  ................
	0x0030 2e 74 68 69 73 00 00 01 00 00 00 00 01 9c 0f 70  .this..........p
	0x0040 00 00 2f 00 00 00 00 02 91 08 0f 6e 00 01 2f 00  ../........n../.
	0x0050 00 00 00 02 91 20 0f 65 72 72 00 01 2f 00 00 00  ..... .err../...
	0x0060 00 02 91 28 00                                   ...(.
	rel 24+8 t=1 "".(*rot13Reader).Read+0
	rel 32+8 t=1 "".(*rot13Reader).Read+343
	rel 42+4 t=29 gofile..<autogenerated>+0
	rel 56+4 t=28 go.info.*"".rot13Reader+0
	rel 67+4 t=28 go.info.[]uint8+0
	rel 79+4 t=28 go.info.int+0
	rel 93+4 t=28 go.info.error+0
go.range."".(*rot13Reader).Read SDWARFRANGE dupok size=0
go.isstmt."".(*rot13Reader).Read SDWARFMISC dupok size=0
	0x0000 04 18 04 24 03 0c 01 1b 02 03 01 50 02 05 01 73  ...$.......P...s
	0x0010 02 29 00                                         .).
go.loc."".rot13Reader.Read SDWARFLOC size=0
go.info."".rot13Reader.Read SDWARFINFO size=113
	0x0000 03 22 22 2e 72 6f 74 31 33 52 65 61 64 65 72 2e  ."".rot13Reader.
	0x0010 52 65 61 64 00 00 00 00 00 00 00 00 00 00 00 00  Read............
	0x0020 00 00 00 00 00 01 9c 00 00 00 00 01 0f 72 6f 74  .............rot
	0x0030 00 00 2f 00 00 00 00 01 9c 0f 70 00 00 2f 00 00  ../.......p../..
	0x0040 00 00 02 91 10 0f 6e 00 01 2f 00 00 00 00 02 91  ......n../......
	0x0050 28 0f 65 72 72 00 01 2f 00 00 00 00 02 91 30 14  (.err../......0.
	0x0060 00 00 00 00 0a 69 00 31 00 00 00 00 02 91 50 00  .....i.1......P.
	0x0070 00                                               .
	rel 21+8 t=1 "".rot13Reader.Read+0
	rel 29+8 t=1 "".rot13Reader.Read+725
	rel 39+4 t=29 gofile../Users/ts-jiajia.hu/Documents/workspace/go-practice/test.go+0
	rel 51+4 t=28 go.info."".rot13Reader+0
	rel 62+4 t=28 go.info.[]uint8+0
	rel 74+4 t=28 go.info.int+0
	rel 88+4 t=28 go.info.error+0
	rel 96+4 t=28 go.range."".rot13Reader.Read+0
	rel 104+4 t=28 go.info.int+0
go.range."".rot13Reader.Read SDWARFRANGE size=48
	0x0000 00 00 00 00 00 00 00 00 00 00 00 00 00 00 00 00  ................
	0x0010 00 00 00 00 00 00 00 00 00 00 00 00 00 00 00 00  ................
	0x0020 00 00 00 00 00 00 00 00 00 00 00 00 00 00 00 00  ................
	rel 0+8 t=50 "".rot13Reader.Read+194
	rel 8+8 t=50 "".rot13Reader.Read+658
	rel 16+8 t=50 "".rot13Reader.Read+668
	rel 24+8 t=50 "".rot13Reader.Read+715
go.isstmt."".rot13Reader.Read SDWARFMISC size=0
	0x0000 04 13 04 0e 03 0c 01 0b 02 03 01 40 02 02 01 45  ...........@...E
	0x0010 02 09 01 02 02 08 01 11 02 05 01 65 02 05 01 59  ...........e...Y
	0x0020 02 02 01 12 02 05 01 65 02 05 01 53 02 07 01 07  .......e...S....
	0x0030 02 0a 01 2e 02 0b 00                             .......
go.string."Lbh penpxrq gur pbqr!" SRODATA dupok size=21
	0x0000 4c 62 68 20 70 65 6e 70 78 72 71 20 67 75 72 20  Lbh penpxrq gur 
	0x0010 70 62 71 72 21                                   pbqr!
go.loc."".main SDWARFLOC size=0
go.info."".main SDWARFINFO size=56
	0x0000 03 22 22 2e 6d 61 69 6e 00 00 00 00 00 00 00 00  ."".main........
	0x0010 00 00 00 00 00 00 00 00 00 01 9c 00 00 00 00 01  ................
	0x0020 0a 73 00 3b 00 00 00 00 02 91 40 0a 26 72 00 3c  .s.;......@.&r.<
	0x0030 00 00 00 00 02 91 58 00                          ......X.
	rel 9+8 t=1 "".main+0
	rel 17+8 t=1 "".main+245
	rel 27+4 t=29 gofile../Users/ts-jiajia.hu/Documents/workspace/go-practice/test.go+0
	rel 36+4 t=28 go.info.*strings.Reader+0
	rel 48+4 t=28 go.info.*"".rot13Reader+0
go.range."".main SDWARFRANGE size=0
go.isstmt."".main SDWARFMISC size=0
	0x0000 04 13 04 0e 03 07 01 0d 02 05 01 0a 02 07 01 04  ................
	0x0010 02 05 01 4f 02 05 01 2d 02 0f 01 07 02 0a 00     ...O...-.......
go.string."len=%d cap=%d %v\n" SRODATA dupok size=17
	0x0000 6c 65 6e 3d 25 64 20 63 61 70 3d 25 64 20 25 76  len=%d cap=%d %v
	0x0010 0a                                               .
go.loc."".printSlice SDWARFLOC size=0
go.info."".printSlice SDWARFINFO size=50
	0x0000 03 22 22 2e 70 72 69 6e 74 53 6c 69 63 65 00 00  ."".printSlice..
	0x0010 00 00 00 00 00 00 00 00 00 00 00 00 00 00 00 01  ................
	0x0020 9c 00 00 00 00 01 0f 73 00 00 40 00 00 00 00 01  .......s..@.....
	0x0030 9c 00                                            ..
	rel 15+8 t=1 "".printSlice+0
	rel 23+8 t=1 "".printSlice+448
	rel 33+4 t=29 gofile../Users/ts-jiajia.hu/Documents/workspace/go-practice/test.go+0
	rel 43+4 t=28 go.info.[]int+0
go.range."".printSlice SDWARFRANGE size=0
go.isstmt."".printSlice SDWARFMISC size=0
	0x0000 04 18 04 17 03 08 01 1b 02 05 01 13 02 05 01 30  ...............0
	0x0010 02 05 01 f3 01 02 15 01 0a 02 0a 00              ............
runtime.gcbits.01 SRODATA dupok size=1
	0x0000 01                                               .
type..namedata.*interface {}- SRODATA dupok size=16
	0x0000 00 00 0d 2a 69 6e 74 65 72 66 61 63 65 20 7b 7d  ...*interface {}
type.*interface {} SRODATA dupok size=56
	0x0000 08 00 00 00 00 00 00 00 08 00 00 00 00 00 00 00  ................
	0x0010 4f 0f 96 9d 00 08 08 36 00 00 00 00 00 00 00 00  O......6........
	0x0020 00 00 00 00 00 00 00 00 00 00 00 00 00 00 00 00  ................
	0x0030 00 00 00 00 00 00 00 00                          ........
	rel 24+8 t=1 runtime.algarray+80
	rel 32+8 t=1 runtime.gcbits.01+0
	rel 40+4 t=5 type..namedata.*interface {}-+0
	rel 48+8 t=1 type.interface {}+0
runtime.gcbits.02 SRODATA dupok size=1
	0x0000 02                                               .
type.interface {} SRODATA dupok size=80
	0x0000 10 00 00 00 00 00 00 00 10 00 00 00 00 00 00 00  ................
	0x0010 e7 57 a0 18 02 08 08 14 00 00 00 00 00 00 00 00  .W..............
	0x0020 00 00 00 00 00 00 00 00 00 00 00 00 00 00 00 00  ................
	0x0030 00 00 00 00 00 00 00 00 00 00 00 00 00 00 00 00  ................
	0x0040 00 00 00 00 00 00 00 00 00 00 00 00 00 00 00 00  ................
	rel 24+8 t=1 runtime.algarray+144
	rel 32+8 t=1 runtime.gcbits.02+0
	rel 40+4 t=5 type..namedata.*interface {}-+0
	rel 44+4 t=6 type.*interface {}+0
	rel 56+8 t=1 type.interface {}+80
type..namedata.*[]interface {}- SRODATA dupok size=18
	0x0000 00 00 0f 2a 5b 5d 69 6e 74 65 72 66 61 63 65 20  ...*[]interface 
	0x0010 7b 7d                                            {}
type.*[]interface {} SRODATA dupok size=56
	0x0000 08 00 00 00 00 00 00 00 08 00 00 00 00 00 00 00  ................
	0x0010 f3 04 9a e7 00 08 08 36 00 00 00 00 00 00 00 00  .......6........
	0x0020 00 00 00 00 00 00 00 00 00 00 00 00 00 00 00 00  ................
	0x0030 00 00 00 00 00 00 00 00                          ........
	rel 24+8 t=1 runtime.algarray+80
	rel 32+8 t=1 runtime.gcbits.01+0
	rel 40+4 t=5 type..namedata.*[]interface {}-+0
	rel 48+8 t=1 type.[]interface {}+0
type.[]interface {} SRODATA dupok size=56
	0x0000 18 00 00 00 00 00 00 00 08 00 00 00 00 00 00 00  ................
	0x0010 70 93 ea 2f 02 08 08 17 00 00 00 00 00 00 00 00  p../............
	0x0020 00 00 00 00 00 00 00 00 00 00 00 00 00 00 00 00  ................
	0x0030 00 00 00 00 00 00 00 00                          ........
	rel 24+8 t=1 runtime.algarray+0
	rel 32+8 t=1 runtime.gcbits.01+0
	rel 40+4 t=5 type..namedata.*[]interface {}-+0
	rel 44+4 t=6 type.*[]interface {}+0
	rel 48+8 t=1 type.interface {}+0
go.loc.type..hash.[3]interface {} SDWARFLOC dupok size=0
go.info.type..hash.[3]interface {} SDWARFINFO dupok size=100
	0x0000 03 74 79 70 65 2e 2e 68 61 73 68 2e 5b 33 5d 69  .type..hash.[3]i
	0x0010 6e 74 65 72 66 61 63 65 20 7b 7d 00 00 00 00 00  nterface {}.....
	0x0020 00 00 00 00 00 00 00 00 00 00 00 00 01 9c 00 00  ................
	0x0030 00 00 01 0a 69 00 01 00 00 00 00 02 91 50 0f 70  ....i........P.p
	0x0040 00 00 01 00 00 00 00 01 9c 0f 68 00 00 01 00 00  ..........h.....
	0x0050 00 00 02 91 08 0f 7e 72 32 00 01 01 00 00 00 00  ......~r2.......
	0x0060 02 91 10 00                                      ....
	rel 28+8 t=1 type..hash.[3]interface {}+0
	rel 36+8 t=1 type..hash.[3]interface {}+176
	rel 46+4 t=29 gofile..<autogenerated>+0
	rel 55+4 t=28 go.info.int+0
	rel 67+4 t=28 go.info.*[3]interface {}+0
	rel 78+4 t=28 go.info.uintptr+0
	rel 92+4 t=28 go.info.uintptr+0
go.range.type..hash.[3]interface {} SDWARFRANGE dupok size=0
go.isstmt.type..hash.[3]interface {} SDWARFMISC dupok size=0
	0x0000 04 13 04 0e 03 09 01 14 02 05 01 2f 02 05 01 1b  .........../....
	0x0010 02 05 01 0f 02 0a 00                             .......
go.loc.type..eq.[3]interface {} SDWARFLOC dupok size=0
go.info.type..eq.[3]interface {} SDWARFINFO dupok size=99
	0x0000 03 74 79 70 65 2e 2e 65 71 2e 5b 33 5d 69 6e 74  .type..eq.[3]int
	0x0010 65 72 66 61 63 65 20 7b 7d 00 00 00 00 00 00 00  erface {}.......
	0x0020 00 00 00 00 00 00 00 00 00 00 01 9c 00 00 00 00  ................
	0x0030 01 0a 69 00 01 00 00 00 00 03 91 b8 7f 0f 70 00  ..i...........p.
	0x0040 00 01 00 00 00 00 01 9c 0f 71 00 00 01 00 00 00  .........q......
	0x0050 00 02 91 08 0f 7e 72 32 00 01 01 00 00 00 00 02  .....~r2........
	0x0060 91 10 00                                         ...
	rel 26+8 t=1 type..eq.[3]interface {}+0
	rel 34+8 t=1 type..eq.[3]interface {}+248
	rel 44+4 t=29 gofile..<autogenerated>+0
	rel 53+4 t=28 go.info.int+0
	rel 66+4 t=28 go.info.*[3]interface {}+0
	rel 77+4 t=28 go.info.*[3]interface {}+0
	rel 91+4 t=28 go.info.bool+0
go.range.type..eq.[3]interface {} SDWARFRANGE dupok size=0
go.isstmt.type..eq.[3]interface {} SDWARFMISC dupok size=0
	0x0000 04 13 04 0e 03 05 01 14 02 05 01 5a 02 05 01 1d  ...........Z....
	0x0010 02 05 01 1f 02 05 01 0a 02 0a 00                 ...........
type..hashfunc.[3]interface {} SRODATA dupok size=8
	0x0000 00 00 00 00 00 00 00 00                          ........
	rel 0+8 t=1 type..hash.[3]interface {}+0
type..eqfunc.[3]interface {} SRODATA dupok size=8
	0x0000 00 00 00 00 00 00 00 00                          ........
	rel 0+8 t=1 type..eq.[3]interface {}+0
type..alg.[3]interface {} SRODATA dupok size=16
	0x0000 00 00 00 00 00 00 00 00 00 00 00 00 00 00 00 00  ................
	rel 0+8 t=1 type..hashfunc.[3]interface {}+0
	rel 8+8 t=1 type..eqfunc.[3]interface {}+0
type..namedata.*[3]interface {}- SRODATA dupok size=19
	0x0000 00 00 10 2a 5b 33 5d 69 6e 74 65 72 66 61 63 65  ...*[3]interface
	0x0010 20 7b 7d                                          {}
type.*[3]interface {} SRODATA dupok size=56
	0x0000 08 00 00 00 00 00 00 00 08 00 00 00 00 00 00 00  ................
	0x0010 b0 18 fe b9 00 08 08 36 00 00 00 00 00 00 00 00  .......6........
	0x0020 00 00 00 00 00 00 00 00 00 00 00 00 00 00 00 00  ................
	0x0030 00 00 00 00 00 00 00 00                          ........
	rel 24+8 t=1 runtime.algarray+80
	rel 32+8 t=1 runtime.gcbits.01+0
	rel 40+4 t=5 type..namedata.*[3]interface {}-+0
	rel 48+8 t=1 type.[3]interface {}+0
runtime.gcbits.2a SRODATA dupok size=1
	0x0000 2a                                               *
type.[3]interface {} SRODATA dupok size=72
	0x0000 30 00 00 00 00 00 00 00 30 00 00 00 00 00 00 00  0.......0.......
	0x0010 1d dd cf d9 02 08 08 11 00 00 00 00 00 00 00 00  ................
	0x0020 00 00 00 00 00 00 00 00 00 00 00 00 00 00 00 00  ................
	0x0030 00 00 00 00 00 00 00 00 00 00 00 00 00 00 00 00  ................
	0x0040 03 00 00 00 00 00 00 00                          ........
	rel 24+8 t=1 type..alg.[3]interface {}+0
	rel 32+8 t=1 runtime.gcbits.2a+0
	rel 40+4 t=5 type..namedata.*[3]interface {}-+0
	rel 44+4 t=6 type.*[3]interface {}+0
	rel 48+8 t=1 type.interface {}+0
	rel 56+8 t=1 type.[]interface {}+0
go.loc."".fibonacci SDWARFLOC size=0
go.info."".fibonacci SDWARFINFO size=75
	0x0000 03 22 22 2e 66 69 62 6f 6e 61 63 63 69 00 00 00  ."".fibonacci...
	0x0010 00 00 00 00 00 00 00 00 00 00 00 00 00 00 01 9c  ................
	0x0020 00 00 00 00 01 0a 26 62 00 46 00 00 00 00 02 91  ......&b.F......
	0x0030 60 0a 26 61 00 45 00 00 00 00 02 91 68 0f 7e 72  `.&a.E......h.~r
	0x0040 30 00 01 44 00 00 00 00 01 9c 00                 0..D.......
	rel 14+8 t=1 "".fibonacci+0
	rel 22+8 t=1 "".fibonacci+257
	rel 32+4 t=29 gofile../Users/ts-jiajia.hu/Documents/workspace/go-practice/test.go+0
	rel 42+4 t=28 go.info.*int+0
	rel 54+4 t=28 go.info.*int+0
	rel 68+4 t=28 go.info.func() int+0
go.range."".fibonacci SDWARFRANGE size=0
go.isstmt."".fibonacci SDWARFMISC size=0
	0x0000 04 13 04 0e 03 10 01 04 02 05 01 11 02 07 01 04  ................
	0x0010 02 05 01 11 02 07 01 04 02 05 01 56 02 05 01 20  ...........V... 
	0x0020 02 0a 00                                         ...
go.loc."".MyFloat.Abs SDWARFLOC size=0
go.info."".MyFloat.Abs SDWARFINFO size=65
	0x0000 03 22 22 2e 4d 79 46 6c 6f 61 74 2e 41 62 73 00  ."".MyFloat.Abs.
	0x0010 00 00 00 00 00 00 00 00 00 00 00 00 00 00 00 00  ................
	0x0020 01 9c 00 00 00 00 01 0f 66 00 00 76 00 00 00 00  ........f..v....
	0x0030 01 9c 0f 7e 72 30 00 01 76 00 00 00 00 02 91 08  ...~r0..v.......
	0x0040 00                                               .
	rel 16+8 t=1 "".MyFloat.Abs+0
	rel 24+8 t=1 "".MyFloat.Abs+64
	rel 34+4 t=29 gofile../Users/ts-jiajia.hu/Documents/workspace/go-practice/test.go+0
	rel 44+4 t=28 go.info."".MyFloat+0
	rel 57+4 t=28 go.info.float64+0
go.range."".MyFloat.Abs SDWARFRANGE size=0
go.isstmt."".MyFloat.Abs SDWARFMISC size=0
	0x0000 04 03 01 06 02 06 01 0b 02 06 01 13 02 06 01 07  ................
	0x0010 00                                               .
go.loc."".Vertex.Abs SDWARFLOC size=0
go.info."".Vertex.Abs SDWARFINFO size=66
	0x0000 03 22 22 2e 56 65 72 74 65 78 2e 41 62 73 00 00  ."".Vertex.Abs..
	0x0010 00 00 00 00 00 00 00 00 00 00 00 00 00 00 00 01  ................
	0x0020 9c 00 00 00 00 01 0f 76 00 00 81 01 00 00 00 00  .......v........
	0x0030 01 9c 0f 7e 72 30 00 01 81 01 00 00 00 00 02 91  ...~r0..........
	0x0040 10 00                                            ..
	rel 15+8 t=1 "".Vertex.Abs+0
	rel 23+8 t=1 "".Vertex.Abs+76
	rel 33+4 t=29 gofile../Users/ts-jiajia.hu/Documents/workspace/go-practice/test.go+0
	rel 44+4 t=28 go.info."".Vertex+0
	rel 58+4 t=28 go.info.float64+0
go.range."".Vertex.Abs SDWARFRANGE size=0
go.isstmt."".Vertex.Abs SDWARFMISC size=0
	0x0000 08 0e 03 03 01 06 02 06 01 2f 00                 ........./.
go.loc."".fibonacci.func1 SDWARFLOC size=0
go.info."".fibonacci.func1 SDWARFINFO size=95
	0x0000 03 22 22 2e 66 69 62 6f 6e 61 63 63 69 2e 66 75  ."".fibonacci.fu
	0x0010 6e 63 31 00 00 00 00 00 00 00 00 00 00 00 00 00  nc1.............
	0x0020 00 00 00 00 01 9c 00 00 00 00 01 0a 74 65 6d 70  ............temp
	0x0030 00 48 00 00 00 00 02 91 58 0a 26 62 00 47 00 00  .H......X.&b.G..
	0x0040 00 00 02 91 60 0a 26 61 00 47 00 00 00 00 02 91  ....`.&a.G......
	0x0050 68 0f 7e 72 30 00 01 47 00 00 00 00 01 9c 00     h.~r0..G.......
	rel 20+8 t=1 "".fibonacci.func1+0
	rel 28+8 t=1 "".fibonacci.func1+112
	rel 38+4 t=29 gofile../Users/ts-jiajia.hu/Documents/workspace/go-practice/test.go+0
	rel 50+4 t=28 go.info.int+0
	rel 62+4 t=28 go.info.*int+0
	rel 74+4 t=28 go.info.*int+0
	rel 88+4 t=28 go.info.int+0
go.range."".fibonacci.func1 SDWARFRANGE size=0
go.isstmt."".fibonacci.func1 SDWARFMISC size=0
	0x0000 08 0e 05 1b 02 05 01 07 02 05 01 13 02 05 01 07  ................
	0x0010 02 05 01 12 00                                   .....
""..inittask SNOPTRDATA size=64
	0x0000 00 00 00 00 00 00 00 00 05 00 00 00 00 00 00 00  ................
	0x0010 00 00 00 00 00 00 00 00 00 00 00 00 00 00 00 00  ................
	0x0020 00 00 00 00 00 00 00 00 00 00 00 00 00 00 00 00  ................
	0x0030 00 00 00 00 00 00 00 00 00 00 00 00 00 00 00 00  ................
	rel 24+8 t=1 fmt..inittask+0
	rel 32+8 t=1 io..inittask+0
	rel 40+8 t=1 math..inittask+0
	rel 48+8 t=1 os..inittask+0
	rel 56+8 t=1 strings..inittask+0
"".pow SDATA size=24
	0x0000 00 00 00 00 00 00 00 00 08 00 00 00 00 00 00 00  ................
	0x0010 08 00 00 00 00 00 00 00                          ........
	rel 0+8 t=1 ""..stmp_0+0
""..stmp_0 SNOPTRDATA size=64
	0x0000 01 00 00 00 00 00 00 00 02 00 00 00 00 00 00 00  ................
	0x0010 04 00 00 00 00 00 00 00 08 00 00 00 00 00 00 00  ................
	0x0020 10 00 00 00 00 00 00 00 20 00 00 00 00 00 00 00  ........ .......
	0x0030 40 00 00 00 00 00 00 00 80 00 00 00 00 00 00 00  @...............
go.loc."".Abser.Abs SDWARFLOC dupok size=0
go.info."".Abser.Abs SDWARFINFO dupok size=67
	0x0000 03 22 22 2e 41 62 73 65 72 2e 41 62 73 00 00 00  ."".Abser.Abs...
	0x0010 00 00 00 00 00 00 00 00 00 00 00 00 00 00 01 9c  ................
	0x0020 00 00 00 00 01 0f 2e 74 68 69 73 00 00 01 00 00  .......this.....
	0x0030 00 00 01 9c 0f 7e 72 30 00 01 51 00 00 00 00 02  .....~r0..Q.....
	0x0040 91 10 00                                         ...
	rel 14+8 t=1 "".Abser.Abs+0
	rel 22+8 t=1 "".Abser.Abs+119
	rel 32+4 t=29 gofile..<autogenerated>+0
	rel 46+4 t=28 go.info."".Abser+0
	rel 59+4 t=28 go.info.float64+0
go.range."".Abser.Abs SDWARFRANGE dupok size=0
go.isstmt."".Abser.Abs SDWARFMISC dupok size=0
	0x0000 04 0f 04 17 03 03 01 1a 02 02 01 1c 02 16 00     ...............
type..namedata.*func() float64- SRODATA dupok size=18
	0x0000 00 00 0f 2a 66 75 6e 63 28 29 20 66 6c 6f 61 74  ...*func() float
	0x0010 36 34                                            64
type.*func() float64 SRODATA dupok size=56
	0x0000 08 00 00 00 00 00 00 00 08 00 00 00 00 00 00 00  ................
	0x0010 cb f0 1a be 00 08 08 36 00 00 00 00 00 00 00 00  .......6........
	0x0020 00 00 00 00 00 00 00 00 00 00 00 00 00 00 00 00  ................
	0x0030 00 00 00 00 00 00 00 00                          ........
	rel 24+8 t=1 runtime.algarray+80
	rel 32+8 t=1 runtime.gcbits.01+0
	rel 40+4 t=5 type..namedata.*func() float64-+0
	rel 48+8 t=1 type.func() float64+0
type.func() float64 SRODATA dupok size=64
	0x0000 08 00 00 00 00 00 00 00 08 00 00 00 00 00 00 00  ................
	0x0010 2d cd 1f 7f 02 08 08 33 00 00 00 00 00 00 00 00  -......3........
	0x0020 00 00 00 00 00 00 00 00 00 00 00 00 00 00 00 00  ................
	0x0030 00 00 01 00 00 00 00 00 00 00 00 00 00 00 00 00  ................
	rel 24+8 t=1 runtime.algarray+0
	rel 32+8 t=1 runtime.gcbits.01+0
	rel 40+4 t=5 type..namedata.*func() float64-+0
	rel 44+4 t=6 type.*func() float64+0
	rel 56+8 t=1 type.float64+0
type..namedata.*main.Abser. SRODATA dupok size=14
	0x0000 01 00 0b 2a 6d 61 69 6e 2e 41 62 73 65 72        ...*main.Abser
type.*"".Abser SRODATA size=56
	0x0000 08 00 00 00 00 00 00 00 08 00 00 00 00 00 00 00  ................
	0x0010 3e ce 78 d5 00 08 08 36 00 00 00 00 00 00 00 00  >.x....6........
	0x0020 00 00 00 00 00 00 00 00 00 00 00 00 00 00 00 00  ................
	0x0030 00 00 00 00 00 00 00 00                          ........
	rel 24+8 t=1 runtime.algarray+80
	rel 32+8 t=1 runtime.gcbits.01+0
	rel 40+4 t=5 type..namedata.*main.Abser.+0
	rel 48+8 t=1 type."".Abser+0
type..namedata.Abs. SRODATA dupok size=6
	0x0000 01 00 03 41 62 73                                ...Abs
type."".Abser SRODATA size=104
	0x0000 10 00 00 00 00 00 00 00 10 00 00 00 00 00 00 00  ................
	0x0010 c4 d5 ca dc 07 08 08 14 00 00 00 00 00 00 00 00  ................
	0x0020 00 00 00 00 00 00 00 00 00 00 00 00 00 00 00 00  ................
	0x0030 00 00 00 00 00 00 00 00 00 00 00 00 00 00 00 00  ................
	0x0040 01 00 00 00 00 00 00 00 01 00 00 00 00 00 00 00  ................
	0x0050 00 00 00 00 00 00 00 00 18 00 00 00 00 00 00 00  ................
	0x0060 00 00 00 00 00 00 00 00                          ........
	rel 24+8 t=1 runtime.algarray+128
	rel 32+8 t=1 runtime.gcbits.02+0
	rel 40+4 t=5 type..namedata.*main.Abser.+0
	rel 44+4 t=5 type.*"".Abser+0
	rel 48+8 t=1 type..importpath."".+0
	rel 56+8 t=1 type."".Abser+96
	rel 80+4 t=5 type..importpath."".+0
	rel 96+4 t=5 type..namedata.Abs.+0
	rel 100+4 t=5 type.func() float64+0
go.loc."".(*MyFloat).Abs SDWARFLOC dupok size=0
go.info."".(*MyFloat).Abs SDWARFINFO dupok size=72
	0x0000 03 22 22 2e 28 2a 4d 79 46 6c 6f 61 74 29 2e 41  ."".(*MyFloat).A
	0x0010 62 73 00 00 00 00 00 00 00 00 00 00 00 00 00 00  bs..............
	0x0020 00 00 00 01 9c 00 00 00 00 01 0f 2e 74 68 69 73  ............this
	0x0030 00 00 01 00 00 00 00 01 9c 0f 7e 72 30 00 01 76  ..........~r0..v
	0x0040 00 00 00 00 02 91 08 00                          ........
	rel 19+8 t=1 "".(*MyFloat).Abs+0
	rel 27+8 t=1 "".(*MyFloat).Abs+140
	rel 37+4 t=29 gofile..<autogenerated>+0
	rel 51+4 t=28 go.info.*"".MyFloat+0
	rel 64+4 t=28 go.info.float64+0
go.range."".(*MyFloat).Abs SDWARFRANGE dupok size=0
go.isstmt."".(*MyFloat).Abs SDWARFMISC dupok size=0
	0x0000 04 0f 04 17 03 03 01 10 02 05 01 11 02 05 01 1c  ................
	0x0010 02 1c 00                                         ...
type..namedata.*main.MyFloat. SRODATA dupok size=16
	0x0000 01 00 0d 2a 6d 61 69 6e 2e 4d 79 46 6c 6f 61 74  ...*main.MyFloat
type..namedata.*func(*main.MyFloat) float64- SRODATA dupok size=31
	0x0000 00 00 1c 2a 66 75 6e 63 28 2a 6d 61 69 6e 2e 4d  ...*func(*main.M
	0x0010 79 46 6c 6f 61 74 29 20 66 6c 6f 61 74 36 34     yFloat) float64
type.*func(*"".MyFloat) float64 SRODATA dupok size=56
	0x0000 08 00 00 00 00 00 00 00 08 00 00 00 00 00 00 00  ................
	0x0010 85 48 5f 6f 00 08 08 36 00 00 00 00 00 00 00 00  .H_o...6........
	0x0020 00 00 00 00 00 00 00 00 00 00 00 00 00 00 00 00  ................
	0x0030 00 00 00 00 00 00 00 00                          ........
	rel 24+8 t=1 runtime.algarray+80
	rel 32+8 t=1 runtime.gcbits.01+0
	rel 40+4 t=5 type..namedata.*func(*main.MyFloat) float64-+0
	rel 48+8 t=1 type.func(*"".MyFloat) float64+0
type.func(*"".MyFloat) float64 SRODATA dupok size=72
	0x0000 08 00 00 00 00 00 00 00 08 00 00 00 00 00 00 00  ................
	0x0010 da 87 3f c1 02 08 08 33 00 00 00 00 00 00 00 00  ..?....3........
	0x0020 00 00 00 00 00 00 00 00 00 00 00 00 00 00 00 00  ................
	0x0030 01 00 01 00 00 00 00 00 00 00 00 00 00 00 00 00  ................
	0x0040 00 00 00 00 00 00 00 00                          ........
	rel 24+8 t=1 runtime.algarray+0
	rel 32+8 t=1 runtime.gcbits.01+0
	rel 40+4 t=5 type..namedata.*func(*main.MyFloat) float64-+0
	rel 44+4 t=6 type.*func(*"".MyFloat) float64+0
	rel 56+8 t=1 type.*"".MyFloat+0
	rel 64+8 t=1 type.float64+0
type.*"".MyFloat SRODATA size=88
	0x0000 08 00 00 00 00 00 00 00 08 00 00 00 00 00 00 00  ................
	0x0010 39 46 d2 b2 01 08 08 36 00 00 00 00 00 00 00 00  9F.....6........
	0x0020 00 00 00 00 00 00 00 00 00 00 00 00 00 00 00 00  ................
	0x0030 00 00 00 00 00 00 00 00 00 00 00 00 01 00 01 00  ................
	0x0040 10 00 00 00 00 00 00 00 00 00 00 00 00 00 00 00  ................
	0x0050 00 00 00 00 00 00 00 00                          ........
	rel 24+8 t=1 runtime.algarray+80
	rel 32+8 t=1 runtime.gcbits.01+0
	rel 40+4 t=5 type..namedata.*main.MyFloat.+0
	rel 48+8 t=1 type."".MyFloat+0
	rel 56+4 t=5 type..importpath."".+0
	rel 72+4 t=5 type..namedata.Abs.+0
	rel 76+4 t=24 type.func() float64+0
	rel 80+4 t=24 "".(*MyFloat).Abs+0
	rel 84+4 t=24 "".(*MyFloat).Abs+0
runtime.gcbits. SRODATA dupok size=0
type..namedata.*func(main.MyFloat) float64- SRODATA dupok size=30
	0x0000 00 00 1b 2a 66 75 6e 63 28 6d 61 69 6e 2e 4d 79  ...*func(main.My
	0x0010 46 6c 6f 61 74 29 20 66 6c 6f 61 74 36 34        Float) float64
type.*func("".MyFloat) float64 SRODATA dupok size=56
	0x0000 08 00 00 00 00 00 00 00 08 00 00 00 00 00 00 00  ................
	0x0010 49 1a 28 ad 00 08 08 36 00 00 00 00 00 00 00 00  I.(....6........
	0x0020 00 00 00 00 00 00 00 00 00 00 00 00 00 00 00 00  ................
	0x0030 00 00 00 00 00 00 00 00                          ........
	rel 24+8 t=1 runtime.algarray+80
	rel 32+8 t=1 runtime.gcbits.01+0
	rel 40+4 t=5 type..namedata.*func(main.MyFloat) float64-+0
	rel 48+8 t=1 type.func("".MyFloat) float64+0
type.func("".MyFloat) float64 SRODATA dupok size=72
	0x0000 08 00 00 00 00 00 00 00 08 00 00 00 00 00 00 00  ................
	0x0010 c5 53 34 ec 02 08 08 33 00 00 00 00 00 00 00 00  .S4....3........
	0x0020 00 00 00 00 00 00 00 00 00 00 00 00 00 00 00 00  ................
	0x0030 01 00 01 00 00 00 00 00 00 00 00 00 00 00 00 00  ................
	0x0040 00 00 00 00 00 00 00 00                          ........
	rel 24+8 t=1 runtime.algarray+0
	rel 32+8 t=1 runtime.gcbits.01+0
	rel 40+4 t=5 type..namedata.*func(main.MyFloat) float64-+0
	rel 44+4 t=6 type.*func("".MyFloat) float64+0
	rel 56+8 t=1 type."".MyFloat+0
	rel 64+8 t=1 type.float64+0
type."".MyFloat SRODATA size=80
	0x0000 08 00 00 00 00 00 00 00 00 00 00 00 00 00 00 00  ................
	0x0010 ac c1 60 98 07 08 08 0e 00 00 00 00 00 00 00 00  ..`.............
	0x0020 00 00 00 00 00 00 00 00 00 00 00 00 00 00 00 00  ................
	0x0030 00 00 00 00 01 00 01 00 10 00 00 00 00 00 00 00  ................
	0x0040 00 00 00 00 00 00 00 00 00 00 00 00 00 00 00 00  ................
	rel 24+8 t=1 runtime.algarray+176
	rel 32+8 t=1 runtime.gcbits.+0
	rel 40+4 t=5 type..namedata.*main.MyFloat.+0
	rel 44+4 t=5 type.*"".MyFloat+0
	rel 48+4 t=5 type..importpath."".+0
	rel 64+4 t=5 type..namedata.Abs.+0
	rel 68+4 t=24 type.func() float64+0
	rel 72+4 t=24 "".(*MyFloat).Abs+0
	rel 76+4 t=24 "".MyFloat.Abs+0
go.loc.type..hash."".Vertex SDWARFLOC dupok size=0
go.info.type..hash."".Vertex SDWARFINFO dupok size=83
	0x0000 03 74 79 70 65 2e 2e 68 61 73 68 2e 22 22 2e 56  .type..hash."".V
	0x0010 65 72 74 65 78 00 00 00 00 00 00 00 00 00 00 00  ertex...........
	0x0020 00 00 00 00 00 00 01 9c 00 00 00 00 01 0f 70 00  ..............p.
	0x0030 00 01 00 00 00 00 01 9c 0f 68 00 00 01 00 00 00  .........h......
	0x0040 00 02 91 08 0f 7e 72 32 00 01 01 00 00 00 00 02  .....~r2........
	0x0050 91 10 00                                         ...
	rel 22+8 t=1 type..hash."".Vertex+0
	rel 30+8 t=1 type..hash."".Vertex+145
	rel 40+4 t=29 gofile..<autogenerated>+0
	rel 50+4 t=28 go.info.*"".Vertex+0
	rel 61+4 t=28 go.info.uintptr+0
	rel 75+4 t=28 go.info.uintptr+0
go.range.type..hash."".Vertex SDWARFRANGE dupok size=0
go.isstmt.type..hash."".Vertex SDWARFMISC dupok size=0
	0x0000 04 0f 04 0e 03 09 01 18 02 05 01 26 02 05 01 19  ...........&....
	0x0010 02 0a 00                                         ...
go.loc.type..eq."".Vertex SDWARFLOC dupok size=0
go.info.type..eq."".Vertex SDWARFINFO dupok size=81
	0x0000 03 74 79 70 65 2e 2e 65 71 2e 22 22 2e 56 65 72  .type..eq."".Ver
	0x0010 74 65 78 00 00 00 00 00 00 00 00 00 00 00 00 00  tex.............
	0x0020 00 00 00 00 01 9c 00 00 00 00 01 0f 70 00 00 01  ............p...
	0x0030 00 00 00 00 01 9c 0f 71 00 00 01 00 00 00 00 02  .......q........
	0x0040 91 08 0f 7e 72 32 00 01 01 00 00 00 00 02 91 10  ...~r2..........
	0x0050 00                                               .
	rel 20+8 t=1 type..eq."".Vertex+0
	rel 28+8 t=1 type..eq."".Vertex+122
	rel 38+4 t=29 gofile..<autogenerated>+0
	rel 48+4 t=28 go.info.*"".Vertex+0
	rel 59+4 t=28 go.info.*"".Vertex+0
	rel 73+4 t=28 go.info.bool+0
go.range.type..eq."".Vertex SDWARFRANGE dupok size=0
go.isstmt.type..eq."".Vertex SDWARFMISC dupok size=0
	0x0000 08 0e 03 05 01 52 02 05 01 10 00                 .....R.....
type..hashfunc."".Vertex SRODATA dupok size=8
	0x0000 00 00 00 00 00 00 00 00                          ........
	rel 0+8 t=1 type..hash."".Vertex+0
type..eqfunc."".Vertex SRODATA dupok size=8
	0x0000 00 00 00 00 00 00 00 00                          ........
	rel 0+8 t=1 type..eq."".Vertex+0
type..alg."".Vertex SRODATA dupok size=16
	0x0000 00 00 00 00 00 00 00 00 00 00 00 00 00 00 00 00  ................
	rel 0+8 t=1 type..hashfunc."".Vertex+0
	rel 8+8 t=1 type..eqfunc."".Vertex+0
go.loc."".(*Vertex).Abs SDWARFLOC dupok size=0
go.info."".(*Vertex).Abs SDWARFINFO dupok size=72
	0x0000 03 22 22 2e 28 2a 56 65 72 74 65 78 29 2e 41 62  ."".(*Vertex).Ab
	0x0010 73 00 00 00 00 00 00 00 00 00 00 00 00 00 00 00  s...............
	0x0020 00 00 01 9c 00 00 00 00 01 0f 2e 74 68 69 73 00  ...........this.
	0x0030 00 01 00 00 00 00 01 9c 0f 7e 72 30 00 01 81 01  .........~r0....
	0x0040 00 00 00 00 02 91 08 00                          ........
	rel 18+8 t=1 "".(*Vertex).Abs+0
	rel 26+8 t=1 "".(*Vertex).Abs+160
	rel 36+4 t=29 gofile..<autogenerated>+0
	rel 50+4 t=28 go.info.*"".Vertex+0
	rel 64+4 t=28 go.info.float64+0
go.range."".(*Vertex).Abs SDWARFRANGE dupok size=0
go.isstmt."".(*Vertex).Abs SDWARFMISC dupok size=0
	0x0000 04 0f 04 17 03 03 01 10 02 05 01 22 02 05 01 1c  ..........."....
	0x0010 02 1f 00                                         ...
type..namedata.*main.Vertex. SRODATA dupok size=15
	0x0000 01 00 0c 2a 6d 61 69 6e 2e 56 65 72 74 65 78     ...*main.Vertex
type..namedata.*func(*main.Vertex) float64- SRODATA dupok size=30
	0x0000 00 00 1b 2a 66 75 6e 63 28 2a 6d 61 69 6e 2e 56  ...*func(*main.V
	0x0010 65 72 74 65 78 29 20 66 6c 6f 61 74 36 34        ertex) float64
type.*func(*"".Vertex) float64 SRODATA dupok size=56
	0x0000 08 00 00 00 00 00 00 00 08 00 00 00 00 00 00 00  ................
	0x0010 1e 09 06 67 00 08 08 36 00 00 00 00 00 00 00 00  ...g...6........
	0x0020 00 00 00 00 00 00 00 00 00 00 00 00 00 00 00 00  ................
	0x0030 00 00 00 00 00 00 00 00                          ........
	rel 24+8 t=1 runtime.algarray+80
	rel 32+8 t=1 runtime.gcbits.01+0
	rel 40+4 t=5 type..namedata.*func(*main.Vertex) float64-+0
	rel 48+8 t=1 type.func(*"".Vertex) float64+0
type.func(*"".Vertex) float64 SRODATA dupok size=72
	0x0000 08 00 00 00 00 00 00 00 08 00 00 00 00 00 00 00  ................
	0x0010 af 41 01 01 02 08 08 33 00 00 00 00 00 00 00 00  .A.....3........
	0x0020 00 00 00 00 00 00 00 00 00 00 00 00 00 00 00 00  ................
	0x0030 01 00 01 00 00 00 00 00 00 00 00 00 00 00 00 00  ................
	0x0040 00 00 00 00 00 00 00 00                          ........
	rel 24+8 t=1 runtime.algarray+0
	rel 32+8 t=1 runtime.gcbits.01+0
	rel 40+4 t=5 type..namedata.*func(*main.Vertex) float64-+0
	rel 44+4 t=6 type.*func(*"".Vertex) float64+0
	rel 56+8 t=1 type.*"".Vertex+0
	rel 64+8 t=1 type.float64+0
type.*"".Vertex SRODATA size=88
	0x0000 08 00 00 00 00 00 00 00 08 00 00 00 00 00 00 00  ................
	0x0010 0b 11 77 8d 01 08 08 36 00 00 00 00 00 00 00 00  ..w....6........
	0x0020 00 00 00 00 00 00 00 00 00 00 00 00 00 00 00 00  ................
	0x0030 00 00 00 00 00 00 00 00 00 00 00 00 01 00 01 00  ................
	0x0040 10 00 00 00 00 00 00 00 00 00 00 00 00 00 00 00  ................
	0x0050 00 00 00 00 00 00 00 00                          ........
	rel 24+8 t=1 runtime.algarray+80
	rel 32+8 t=1 runtime.gcbits.01+0
	rel 40+4 t=5 type..namedata.*main.Vertex.+0
	rel 48+8 t=1 type."".Vertex+0
	rel 56+4 t=5 type..importpath."".+0
	rel 72+4 t=5 type..namedata.Abs.+0
	rel 76+4 t=24 type.func() float64+0
	rel 80+4 t=24 "".(*Vertex).Abs+0
	rel 84+4 t=24 "".(*Vertex).Abs+0
type..namedata.*func(main.Vertex) float64- SRODATA dupok size=29
	0x0000 00 00 1a 2a 66 75 6e 63 28 6d 61 69 6e 2e 56 65  ...*func(main.Ve
	0x0010 72 74 65 78 29 20 66 6c 6f 61 74 36 34           rtex) float64
type.*func("".Vertex) float64 SRODATA dupok size=56
	0x0000 08 00 00 00 00 00 00 00 08 00 00 00 00 00 00 00  ................
	0x0010 c4 c3 9f 7c 00 08 08 36 00 00 00 00 00 00 00 00  ...|...6........
	0x0020 00 00 00 00 00 00 00 00 00 00 00 00 00 00 00 00  ................
	0x0030 00 00 00 00 00 00 00 00                          ........
	rel 24+8 t=1 runtime.algarray+80
	rel 32+8 t=1 runtime.gcbits.01+0
	rel 40+4 t=5 type..namedata.*func(main.Vertex) float64-+0
	rel 48+8 t=1 type.func("".Vertex) float64+0
type.func("".Vertex) float64 SRODATA dupok size=72
	0x0000 08 00 00 00 00 00 00 00 08 00 00 00 00 00 00 00  ................
	0x0010 79 a5 76 4e 02 08 08 33 00 00 00 00 00 00 00 00  y.vN...3........
	0x0020 00 00 00 00 00 00 00 00 00 00 00 00 00 00 00 00  ................
	0x0030 01 00 01 00 00 00 00 00 00 00 00 00 00 00 00 00  ................
	0x0040 00 00 00 00 00 00 00 00                          ........
	rel 24+8 t=1 runtime.algarray+0
	rel 32+8 t=1 runtime.gcbits.01+0
	rel 40+4 t=5 type..namedata.*func(main.Vertex) float64-+0
	rel 44+4 t=6 type.*func("".Vertex) float64+0
	rel 56+8 t=1 type."".Vertex+0
	rel 64+8 t=1 type.float64+0
type..namedata.X. SRODATA dupok size=4
	0x0000 01 00 01 58                                      ...X
type..namedata.Y. SRODATA dupok size=4
	0x0000 01 00 01 59                                      ...Y
type."".Vertex SRODATA size=160
	0x0000 10 00 00 00 00 00 00 00 00 00 00 00 00 00 00 00  ................
	0x0010 d0 5f e1 3c 07 08 08 19 00 00 00 00 00 00 00 00  ._.<............
	0x0020 00 00 00 00 00 00 00 00 00 00 00 00 00 00 00 00  ................
	0x0030 00 00 00 00 00 00 00 00 00 00 00 00 00 00 00 00  ................
	0x0040 02 00 00 00 00 00 00 00 02 00 00 00 00 00 00 00  ................
	0x0050 00 00 00 00 01 00 01 00 40 00 00 00 00 00 00 00  ........@.......
	0x0060 00 00 00 00 00 00 00 00 00 00 00 00 00 00 00 00  ................
	0x0070 00 00 00 00 00 00 00 00 00 00 00 00 00 00 00 00  ................
	0x0080 00 00 00 00 00 00 00 00 10 00 00 00 00 00 00 00  ................
	0x0090 00 00 00 00 00 00 00 00 00 00 00 00 00 00 00 00  ................
	rel 24+8 t=1 type..alg."".Vertex+0
	rel 32+8 t=1 runtime.gcbits.+0
	rel 40+4 t=5 type..namedata.*main.Vertex.+0
	rel 44+4 t=5 type.*"".Vertex+0
	rel 56+8 t=1 type."".Vertex+96
	rel 80+4 t=5 type..importpath."".+0
	rel 96+8 t=1 type..namedata.X.+0
	rel 104+8 t=1 type.float64+0
	rel 120+8 t=1 type..namedata.Y.+0
	rel 128+8 t=1 type.float64+0
	rel 144+4 t=5 type..namedata.Abs.+0
	rel 148+4 t=24 type.func() float64+0
	rel 152+4 t=24 "".(*Vertex).Abs+0
	rel 156+4 t=24 "".Vertex.Abs+0
type..namedata.*main.rot13Reader- SRODATA dupok size=20
	0x0000 00 00 11 2a 6d 61 69 6e 2e 72 6f 74 31 33 52 65  ...*main.rot13Re
	0x0010 61 64 65 72                                      ader
type..namedata.*[]uint8- SRODATA dupok size=11
	0x0000 00 00 08 2a 5b 5d 75 69 6e 74 38                 ...*[]uint8
type.*[]uint8 SRODATA dupok size=56
	0x0000 08 00 00 00 00 00 00 00 08 00 00 00 00 00 00 00  ................
	0x0010 a5 8e d0 69 00 08 08 36 00 00 00 00 00 00 00 00  ...i...6........
	0x0020 00 00 00 00 00 00 00 00 00 00 00 00 00 00 00 00  ................
	0x0030 00 00 00 00 00 00 00 00                          ........
	rel 24+8 t=1 runtime.algarray+80
	rel 32+8 t=1 runtime.gcbits.01+0
	rel 40+4 t=5 type..namedata.*[]uint8-+0
	rel 48+8 t=1 type.[]uint8+0
type.[]uint8 SRODATA dupok size=56
	0x0000 18 00 00 00 00 00 00 00 08 00 00 00 00 00 00 00  ................
	0x0010 df 7e 2e 38 02 08 08 17 00 00 00 00 00 00 00 00  .~.8............
	0x0020 00 00 00 00 00 00 00 00 00 00 00 00 00 00 00 00  ................
	0x0030 00 00 00 00 00 00 00 00                          ........
	rel 24+8 t=1 runtime.algarray+0
	rel 32+8 t=1 runtime.gcbits.01+0
	rel 40+4 t=5 type..namedata.*[]uint8-+0
	rel 44+4 t=6 type.*[]uint8+0
	rel 48+8 t=1 type.uint8+0
type..namedata.*func(*main.rot13Reader, []uint8) (int, error)- SRODATA dupok size=49
	0x0000 00 00 2e 2a 66 75 6e 63 28 2a 6d 61 69 6e 2e 72  ...*func(*main.r
	0x0010 6f 74 31 33 52 65 61 64 65 72 2c 20 5b 5d 75 69  ot13Reader, []ui
	0x0020 6e 74 38 29 20 28 69 6e 74 2c 20 65 72 72 6f 72  nt8) (int, error
	0x0030 29                                               )
type.*func(*"".rot13Reader, []uint8) (int, error) SRODATA dupok size=56
	0x0000 08 00 00 00 00 00 00 00 08 00 00 00 00 00 00 00  ................
	0x0010 b9 5b d0 14 00 08 08 36 00 00 00 00 00 00 00 00  .[.....6........
	0x0020 00 00 00 00 00 00 00 00 00 00 00 00 00 00 00 00  ................
	0x0030 00 00 00 00 00 00 00 00                          ........
	rel 24+8 t=1 runtime.algarray+80
	rel 32+8 t=1 runtime.gcbits.01+0
	rel 40+4 t=5 type..namedata.*func(*main.rot13Reader, []uint8) (int, error)-+0
	rel 48+8 t=1 type.func(*"".rot13Reader, []uint8) (int, error)+0
type.func(*"".rot13Reader, []uint8) (int, error) SRODATA dupok size=88
	0x0000 08 00 00 00 00 00 00 00 08 00 00 00 00 00 00 00  ................
	0x0010 b3 99 44 ba 02 08 08 33 00 00 00 00 00 00 00 00  ..D....3........
	0x0020 00 00 00 00 00 00 00 00 00 00 00 00 00 00 00 00  ................
	0x0030 02 00 02 00 00 00 00 00 00 00 00 00 00 00 00 00  ................
	0x0040 00 00 00 00 00 00 00 00 00 00 00 00 00 00 00 00  ................
	0x0050 00 00 00 00 00 00 00 00                          ........
	rel 24+8 t=1 runtime.algarray+0
	rel 32+8 t=1 runtime.gcbits.01+0
	rel 40+4 t=5 type..namedata.*func(*main.rot13Reader, []uint8) (int, error)-+0
	rel 44+4 t=6 type.*func(*"".rot13Reader, []uint8) (int, error)+0
	rel 56+8 t=1 type.*"".rot13Reader+0
	rel 64+8 t=1 type.[]uint8+0
	rel 72+8 t=1 type.int+0
	rel 80+8 t=1 type.error+0
type..namedata.Read. SRODATA dupok size=7
	0x0000 01 00 04 52 65 61 64                             ...Read
type..namedata.*func([]uint8) (int, error)- SRODATA dupok size=30
	0x0000 00 00 1b 2a 66 75 6e 63 28 5b 5d 75 69 6e 74 38  ...*func([]uint8
	0x0010 29 20 28 69 6e 74 2c 20 65 72 72 6f 72 29        ) (int, error)
type.*func([]uint8) (int, error) SRODATA dupok size=56
	0x0000 08 00 00 00 00 00 00 00 08 00 00 00 00 00 00 00  ................
	0x0010 a3 79 c5 03 00 08 08 36 00 00 00 00 00 00 00 00  .y.....6........
	0x0020 00 00 00 00 00 00 00 00 00 00 00 00 00 00 00 00  ................
	0x0030 00 00 00 00 00 00 00 00                          ........
	rel 24+8 t=1 runtime.algarray+80
	rel 32+8 t=1 runtime.gcbits.01+0
	rel 40+4 t=5 type..namedata.*func([]uint8) (int, error)-+0
	rel 48+8 t=1 type.func([]uint8) (int, error)+0
type.func([]uint8) (int, error) SRODATA dupok size=80
	0x0000 08 00 00 00 00 00 00 00 08 00 00 00 00 00 00 00  ................
	0x0010 84 4e 34 50 02 08 08 33 00 00 00 00 00 00 00 00  .N4P...3........
	0x0020 00 00 00 00 00 00 00 00 00 00 00 00 00 00 00 00  ................
	0x0030 01 00 02 00 00 00 00 00 00 00 00 00 00 00 00 00  ................
	0x0040 00 00 00 00 00 00 00 00 00 00 00 00 00 00 00 00  ................
	rel 24+8 t=1 runtime.algarray+0
	rel 32+8 t=1 runtime.gcbits.01+0
	rel 40+4 t=5 type..namedata.*func([]uint8) (int, error)-+0
	rel 44+4 t=6 type.*func([]uint8) (int, error)+0
	rel 56+8 t=1 type.[]uint8+0
	rel 64+8 t=1 type.int+0
	rel 72+8 t=1 type.error+0
type.*"".rot13Reader SRODATA size=88
	0x0000 08 00 00 00 00 00 00 00 08 00 00 00 00 00 00 00  ................
	0x0010 1e 4a 63 59 01 08 08 36 00 00 00 00 00 00 00 00  .JcY...6........
	0x0020 00 00 00 00 00 00 00 00 00 00 00 00 00 00 00 00  ................
	0x0030 00 00 00 00 00 00 00 00 00 00 00 00 01 00 01 00  ................
	0x0040 10 00 00 00 00 00 00 00 00 00 00 00 00 00 00 00  ................
	0x0050 00 00 00 00 00 00 00 00                          ........
	rel 24+8 t=1 runtime.algarray+80
	rel 32+8 t=1 runtime.gcbits.01+0
	rel 40+4 t=5 type..namedata.*main.rot13Reader-+0
	rel 48+8 t=1 type."".rot13Reader+0
	rel 56+4 t=5 type..importpath."".+0
	rel 72+4 t=5 type..namedata.Read.+0
	rel 76+4 t=24 type.func([]uint8) (int, error)+0
	rel 80+4 t=24 "".(*rot13Reader).Read+0
	rel 84+4 t=24 "".(*rot13Reader).Read+0
type..namedata.*func(main.rot13Reader, []uint8) (int, error)- SRODATA dupok size=48
	0x0000 00 00 2d 2a 66 75 6e 63 28 6d 61 69 6e 2e 72 6f  ..-*func(main.ro
	0x0010 74 31 33 52 65 61 64 65 72 2c 20 5b 5d 75 69 6e  t13Reader, []uin
	0x0020 74 38 29 20 28 69 6e 74 2c 20 65 72 72 6f 72 29  t8) (int, error)
type.*func("".rot13Reader, []uint8) (int, error) SRODATA dupok size=56
	0x0000 08 00 00 00 00 00 00 00 08 00 00 00 00 00 00 00  ................
	0x0010 aa e9 ea b5 00 08 08 36 00 00 00 00 00 00 00 00  .......6........
	0x0020 00 00 00 00 00 00 00 00 00 00 00 00 00 00 00 00  ................
	0x0030 00 00 00 00 00 00 00 00                          ........
	rel 24+8 t=1 runtime.algarray+80
	rel 32+8 t=1 runtime.gcbits.01+0
	rel 40+4 t=5 type..namedata.*func(main.rot13Reader, []uint8) (int, error)-+0
	rel 48+8 t=1 type.func("".rot13Reader, []uint8) (int, error)+0
type.func("".rot13Reader, []uint8) (int, error) SRODATA dupok size=88
	0x0000 08 00 00 00 00 00 00 00 08 00 00 00 00 00 00 00  ................
	0x0010 8e 58 17 53 02 08 08 33 00 00 00 00 00 00 00 00  .X.S...3........
	0x0020 00 00 00 00 00 00 00 00 00 00 00 00 00 00 00 00  ................
	0x0030 02 00 02 00 00 00 00 00 00 00 00 00 00 00 00 00  ................
	0x0040 00 00 00 00 00 00 00 00 00 00 00 00 00 00 00 00  ................
	0x0050 00 00 00 00 00 00 00 00                          ........
	rel 24+8 t=1 runtime.algarray+0
	rel 32+8 t=1 runtime.gcbits.01+0
	rel 40+4 t=5 type..namedata.*func(main.rot13Reader, []uint8) (int, error)-+0
	rel 44+4 t=6 type.*func("".rot13Reader, []uint8) (int, error)+0
	rel 56+8 t=1 type."".rot13Reader+0
	rel 64+8 t=1 type.[]uint8+0
	rel 72+8 t=1 type.int+0
	rel 80+8 t=1 type.error+0
type..namedata.r- SRODATA dupok size=4
	0x0000 00 00 01 72                                      ...r
type."".rot13Reader SRODATA size=136
	0x0000 10 00 00 00 00 00 00 00 10 00 00 00 00 00 00 00  ................
	0x0010 dc fb ab dd 07 08 08 19 00 00 00 00 00 00 00 00  ................
	0x0020 00 00 00 00 00 00 00 00 00 00 00 00 00 00 00 00  ................
	0x0030 00 00 00 00 00 00 00 00 00 00 00 00 00 00 00 00  ................
	0x0040 01 00 00 00 00 00 00 00 01 00 00 00 00 00 00 00  ................
	0x0050 00 00 00 00 01 00 01 00 28 00 00 00 00 00 00 00  ........(.......
	0x0060 00 00 00 00 00 00 00 00 00 00 00 00 00 00 00 00  ................
	0x0070 00 00 00 00 00 00 00 00 00 00 00 00 00 00 00 00  ................
	0x0080 00 00 00 00 00 00 00 00                          ........
	rel 24+8 t=1 runtime.algarray+128
	rel 32+8 t=1 runtime.gcbits.02+0
	rel 40+4 t=5 type..namedata.*main.rot13Reader-+0
	rel 44+4 t=5 type.*"".rot13Reader+0
	rel 48+8 t=1 type..importpath."".+0
	rel 56+8 t=1 type."".rot13Reader+96
	rel 80+4 t=5 type..importpath."".+0
	rel 96+8 t=1 type..namedata.r-+0
	rel 104+8 t=1 type.io.Reader+0
	rel 120+4 t=5 type..namedata.Read.+0
	rel 124+4 t=24 type.func([]uint8) (int, error)+0
	rel 128+4 t=24 "".(*rot13Reader).Read+0
	rel 132+4 t=24 "".rot13Reader.Read+0
runtime.gcbits.06 SRODATA dupok size=1
	0x0000 06                                               .
type..namedata.*struct { F uintptr; b *int; a *int }- SRODATA dupok size=40
	0x0000 00 00 25 2a 73 74 72 75 63 74 20 7b 20 46 20 75  ..%*struct { F u
	0x0010 69 6e 74 70 74 72 3b 20 62 20 2a 69 6e 74 3b 20  intptr; b *int; 
	0x0020 61 20 2a 69 6e 74 20 7d                          a *int }
type..namedata..F- SRODATA dupok size=5
	0x0000 00 00 02 2e 46                                   ....F
type..namedata.b- SRODATA dupok size=4
	0x0000 00 00 01 62                                      ...b
type..namedata.a- SRODATA dupok size=4
	0x0000 00 00 01 61                                      ...a
type.noalg.struct { F uintptr; "".b *int; "".a *int } SRODATA dupok size=152
	0x0000 18 00 00 00 00 00 00 00 18 00 00 00 00 00 00 00  ................
	0x0010 3f 2a 16 cc 02 08 08 19 00 00 00 00 00 00 00 00  ?*..............
	0x0020 00 00 00 00 00 00 00 00 00 00 00 00 00 00 00 00  ................
	0x0030 00 00 00 00 00 00 00 00 00 00 00 00 00 00 00 00  ................
	0x0040 03 00 00 00 00 00 00 00 03 00 00 00 00 00 00 00  ................
	0x0050 00 00 00 00 00 00 00 00 00 00 00 00 00 00 00 00  ................
	0x0060 00 00 00 00 00 00 00 00 00 00 00 00 00 00 00 00  ................
	0x0070 00 00 00 00 00 00 00 00 10 00 00 00 00 00 00 00  ................
	0x0080 00 00 00 00 00 00 00 00 00 00 00 00 00 00 00 00  ................
	0x0090 20 00 00 00 00 00 00 00                           .......
	rel 24+8 t=1 runtime.algarray+0
	rel 32+8 t=1 runtime.gcbits.06+0
	rel 40+4 t=5 type..namedata.*struct { F uintptr; b *int; a *int }-+0
	rel 44+4 t=6 type.*struct { F uintptr; "".b *int; "".a *int }+0
	rel 48+8 t=1 type..importpath."".+0
	rel 56+8 t=1 type.noalg.struct { F uintptr; "".b *int; "".a *int }+80
	rel 80+8 t=1 type..namedata..F-+0
	rel 88+8 t=1 type.uintptr+0
	rel 104+8 t=1 type..namedata.b-+0
	rel 112+8 t=1 type.*int+0
	rel 128+8 t=1 type..namedata.a-+0
	rel 136+8 t=1 type.*int+0
type.*struct { F uintptr; "".b *int; "".a *int } SRODATA dupok size=56
	0x0000 08 00 00 00 00 00 00 00 08 00 00 00 00 00 00 00  ................
	0x0010 1f e4 e8 ca 00 08 08 36 00 00 00 00 00 00 00 00  .......6........
	0x0020 00 00 00 00 00 00 00 00 00 00 00 00 00 00 00 00  ................
	0x0030 00 00 00 00 00 00 00 00                          ........
	rel 24+8 t=1 runtime.algarray+80
	rel 32+8 t=1 runtime.gcbits.01+0
	rel 40+4 t=5 type..namedata.*struct { F uintptr; b *int; a *int }-+0
	rel 48+8 t=1 type.noalg.struct { F uintptr; "".b *int; "".a *int }+0
type..namedata.*[]int- SRODATA dupok size=9
	0x0000 00 00 06 2a 5b 5d 69 6e 74                       ...*[]int
type.*[]int SRODATA dupok size=56
	0x0000 08 00 00 00 00 00 00 00 08 00 00 00 00 00 00 00  ................
	0x0010 1b 31 52 88 00 08 08 36 00 00 00 00 00 00 00 00  .1R....6........
	0x0020 00 00 00 00 00 00 00 00 00 00 00 00 00 00 00 00  ................
	0x0030 00 00 00 00 00 00 00 00                          ........
	rel 24+8 t=1 runtime.algarray+80
	rel 32+8 t=1 runtime.gcbits.01+0
	rel 40+4 t=5 type..namedata.*[]int-+0
	rel 48+8 t=1 type.[]int+0
type.[]int SRODATA dupok size=56
	0x0000 18 00 00 00 00 00 00 00 08 00 00 00 00 00 00 00  ................
	0x0010 8e 66 f9 1b 02 08 08 17 00 00 00 00 00 00 00 00  .f..............
	0x0020 00 00 00 00 00 00 00 00 00 00 00 00 00 00 00 00  ................
	0x0030 00 00 00 00 00 00 00 00                          ........
	rel 24+8 t=1 runtime.algarray+0
	rel 32+8 t=1 runtime.gcbits.01+0
	rel 40+4 t=5 type..namedata.*[]int-+0
	rel 44+4 t=6 type.*[]int+0
	rel 48+8 t=1 type.int+0
type..hashfunc64 SRODATA dupok size=16
	0x0000 00 00 00 00 00 00 00 00 40 00 00 00 00 00 00 00  ........@.......
	rel 0+8 t=1 runtime.memhash_varlen+0
type..eqfunc64 SRODATA dupok size=16
	0x0000 00 00 00 00 00 00 00 00 40 00 00 00 00 00 00 00  ........@.......
	rel 0+8 t=1 runtime.memequal_varlen+0
type..alg64 SRODATA dupok size=16
	0x0000 00 00 00 00 00 00 00 00 00 00 00 00 00 00 00 00  ................
	rel 0+8 t=1 type..hashfunc64+0
	rel 8+8 t=1 type..eqfunc64+0
type..namedata.*[8]int- SRODATA dupok size=10
	0x0000 00 00 07 2a 5b 38 5d 69 6e 74                    ...*[8]int
type.*[8]int SRODATA dupok size=56
	0x0000 08 00 00 00 00 00 00 00 08 00 00 00 00 00 00 00  ................
	0x0010 f3 3f a8 3b 00 08 08 36 00 00 00 00 00 00 00 00  .?.;...6........
	0x0020 00 00 00 00 00 00 00 00 00 00 00 00 00 00 00 00  ................
	0x0030 00 00 00 00 00 00 00 00                          ........
	rel 24+8 t=1 runtime.algarray+80
	rel 32+8 t=1 runtime.gcbits.01+0
	rel 40+4 t=5 type..namedata.*[8]int-+0
	rel 48+8 t=1 type.[8]int+0
type.[8]int SRODATA dupok size=72
	0x0000 40 00 00 00 00 00 00 00 00 00 00 00 00 00 00 00  @...............
	0x0010 96 99 d5 05 02 08 08 11 00 00 00 00 00 00 00 00  ................
	0x0020 00 00 00 00 00 00 00 00 00 00 00 00 00 00 00 00  ................
	0x0030 00 00 00 00 00 00 00 00 00 00 00 00 00 00 00 00  ................
	0x0040 08 00 00 00 00 00 00 00                          ........
	rel 24+8 t=1 type..alg64+0
	rel 32+8 t=1 runtime.gcbits.+0
	rel 40+4 t=5 type..namedata.*[8]int-+0
	rel 44+4 t=6 type.*[8]int+0
	rel 48+8 t=1 type.int+0
	rel 56+8 t=1 type.[]int+0
type..namedata.*func() int- SRODATA dupok size=14
	0x0000 00 00 0b 2a 66 75 6e 63 28 29 20 69 6e 74        ...*func() int
type.*func() int SRODATA dupok size=56
	0x0000 08 00 00 00 00 00 00 00 08 00 00 00 00 00 00 00  ................
	0x0010 51 b2 ed c6 00 08 08 36 00 00 00 00 00 00 00 00  Q......6........
	0x0020 00 00 00 00 00 00 00 00 00 00 00 00 00 00 00 00  ................
	0x0030 00 00 00 00 00 00 00 00                          ........
	rel 24+8 t=1 runtime.algarray+80
	rel 32+8 t=1 runtime.gcbits.01+0
	rel 40+4 t=5 type..namedata.*func() int-+0
	rel 48+8 t=1 type.func() int+0
type.func() int SRODATA dupok size=64
	0x0000 08 00 00 00 00 00 00 00 08 00 00 00 00 00 00 00  ................
	0x0010 e5 86 39 e0 02 08 08 33 00 00 00 00 00 00 00 00  ..9....3........
	0x0020 00 00 00 00 00 00 00 00 00 00 00 00 00 00 00 00  ................
	0x0030 00 00 01 00 00 00 00 00 00 00 00 00 00 00 00 00  ................
	rel 24+8 t=1 runtime.algarray+0
	rel 32+8 t=1 runtime.gcbits.01+0
	rel 40+4 t=5 type..namedata.*func() int-+0
	rel 44+4 t=6 type.*func() int+0
	rel 56+8 t=1 type.int+0
go.itab.*strings.Reader,io.Reader SRODATA dupok size=32
	0x0000 00 00 00 00 00 00 00 00 00 00 00 00 00 00 00 00  ................
	0x0010 7d 18 28 41 00 00 00 00 00 00 00 00 00 00 00 00  }.(A............
	rel 0+8 t=1 type.io.Reader+0
	rel 8+8 t=1 type.*strings.Reader+0
	rel 24+8 t=1 strings.(*Reader).Read+0
go.itablink.*strings.Reader,io.Reader SRODATA dupok size=8
	0x0000 00 00 00 00 00 00 00 00                          ........
	rel 0+8 t=1 go.itab.*strings.Reader,io.Reader+0
go.itab.*os.File,io.Writer SRODATA dupok size=32
	0x0000 00 00 00 00 00 00 00 00 00 00 00 00 00 00 00 00  ................
	0x0010 44 b5 f3 33 00 00 00 00 00 00 00 00 00 00 00 00  D..3............
	rel 0+8 t=1 type.io.Writer+0
	rel 8+8 t=1 type.*os.File+0
	rel 24+8 t=1 os.(*File).Write+0
go.itablink.*os.File,io.Writer SRODATA dupok size=8
	0x0000 00 00 00 00 00 00 00 00                          ........
	rel 0+8 t=1 go.itab.*os.File,io.Writer+0
go.itab.*"".rot13Reader,io.Reader SRODATA dupok size=32
	0x0000 00 00 00 00 00 00 00 00 00 00 00 00 00 00 00 00  ................
	0x0010 1e 4a 63 59 00 00 00 00 00 00 00 00 00 00 00 00  .JcY............
	rel 0+8 t=1 type.io.Reader+0
	rel 8+8 t=1 type.*"".rot13Reader+0
	rel 24+8 t=1 "".(*rot13Reader).Read+0
go.itablink.*"".rot13Reader,io.Reader SRODATA dupok size=8
	0x0000 00 00 00 00 00 00 00 00                          ........
	rel 0+8 t=1 go.itab.*"".rot13Reader,io.Reader+0
type..importpath.fmt. SRODATA dupok size=6
	0x0000 00 00 03 66 6d 74                                ...fmt
type..importpath.io. SRODATA dupok size=5
	0x0000 00 00 02 69 6f                                   ...io
type..importpath.math. SRODATA dupok size=7
	0x0000 00 00 04 6d 61 74 68                             ...math
type..importpath.os. SRODATA dupok size=5
	0x0000 00 00 02 6f 73                                   ...os
type..importpath.strings. SRODATA dupok size=10
	0x0000 00 00 07 73 74 72 69 6e 67 73                    ...strings
gclocals·e6397a44f8e1b6e77d0f200b4fba5269 SRODATA dupok size=10
	0x0000 02 00 00 00 03 00 00 00 01 00                    ..........
gclocals·69c1753bd5f81501d95132d08af04464 SRODATA dupok size=8
	0x0000 02 00 00 00 00 00 00 00                          ........
gclocals·9fb7f0986f647f17cb53dda1484e0f7a SRODATA dupok size=10
	0x0000 02 00 00 00 01 00 00 00 00 01                    ..........
gclocals·088d5bd83c3e035221d51d44b05906ec SRODATA dupok size=14
	0x0000 06 00 00 00 07 00 00 00 03 02 00 00 00 40        .............@
gclocals·4303497f0013a43067d234d0dfa34051 SRODATA dupok size=14
	0x0000 06 00 00 00 06 00 00 00 00 00 00 08 20 00        ............ .
gclocals·0467cf7c958da2c4871f143640c96a1c SRODATA dupok size=12
	0x0000 04 00 00 00 03 00 00 00 00 01 04 02              ............
gclocals·ee8761d1a6407ef9cacf0dda57e5b257 SRODATA dupok size=14
	0x0000 06 00 00 00 08 00 00 00 06 04 04 84 80 00        ..............
gclocals·77ef016692b196776c0a53ed33945115 SRODATA dupok size=14
	0x0000 06 00 00 00 02 00 00 00 00 00 02 00 00 00        ..............
gclocals·d683c32a9776065f0543c82fb4cd6575 SRODATA dupok size=15
	0x0000 07 00 00 00 06 00 00 00 00 02 08 01 04 24 20     .............$ 
gclocals·3e27b3aa6b89137cce48b3379a2a6610 SRODATA dupok size=8
	0x0000 05 00 00 00 00 00 00 00                          ........
gclocals·c4d88466129474bbdba2a1851c779d45 SRODATA dupok size=13
	0x0000 05 00 00 00 06 00 00 00 00 01 09 08 0c           .............
gclocals·9d74269ff04bfd0ad3f55e2fd078ea82 SRODATA dupok size=14
	0x0000 06 00 00 00 07 00 00 00 00 01 03 07 05 45        .............E
gclocals·2e82ec484edad8567a27d109087d3446 SRODATA dupok size=20
	0x0000 0c 00 00 00 01 00 00 00 01 01 01 00 00 00 00 00  ................
	0x0010 00 00 00 00                                      ....
gclocals·6a47ac248f2d2d817e4190d068e08b9f SRODATA dupok size=32
	0x0000 0c 00 00 00 0d 00 00 00 00 00 08 00 0c 00 0c 00  ................
	0x0010 0e 00 0e 15 0f 00 07 00 03 00 01 00 00 00 10 00  ................
gclocals·cc71413ca7aa252461e8f7e24c7c2df4 SRODATA dupok size=14
	0x0000 06 00 00 00 07 00 00 00 00 01 04 03 07 43        .............C
"".printSlice.stkobj SRODATA dupok size=24
	0x0000 01 00 00 00 00 00 00 00 d0 ff ff ff ff ff ff ff  ................
	0x0010 00 00 00 00 00 00 00 00                          ........
	rel 16+8 t=1 type.[3]interface {}+0
gclocals·1a65e721a2ccc325b382662e7ffee780 SRODATA dupok size=10
	0x0000 02 00 00 00 01 00 00 00 01 00                    ..........
gclocals·263043c8f03e3241528dfae4e2812ef4 SRODATA dupok size=10
	0x0000 02 00 00 00 01 00 00 00 00 00                    ..........
gclocals·5e326a2f5498e528ce8fbe7bd86e7d21 SRODATA dupok size=11
	0x0000 03 00 00 00 02 00 00 00 03 03 00                 ...........
gclocals·5363b3e3636eaaac400b9fb2466dc1f5 SRODATA dupok size=11
	0x0000 03 00 00 00 04 00 00 00 00 08 00                 ...........
gclocals·6e8d7ea4abad763909b26991048ee1fe SRODATA dupok size=12
	0x0000 04 00 00 00 02 00 00 00 00 01 03 02              ............
gclocals·aebfaaccb902f5df3f8b0f52074cfd43 SRODATA dupok size=15
	0x0000 07 00 00 00 01 00 00 00 00 00 00 00 00 00 01     ...............
gclocals·480e86cc971806130d76f811e08ae420 SRODATA dupok size=15
	0x0000 07 00 00 00 03 00 00 00 00 04 06 07 05 01 00     ...............
gclocals·73ca1eebee35d5406a0acf4b13f13ff5 SRODATA dupok size=13
	0x0000 05 00 00 00 07 00 00 00 00 01 03 43 02           ...........C.
gclocals·33cdeccccebe80329f1fdbee7f5874cb SRODATA dupok size=8
	0x0000 01 00 00 00 00 00 00 00                          ........
gclocals·7d2d5fca80364273fb07d5820a76fef4 SRODATA dupok size=8
	0x0000 03 00 00 00 00 00 00 00                          ........
gclocals·bfec7e55b3f043d1941c093912808913 SRODATA dupok size=11
	0x0000 03 00 00 00 02 00 00 00 00 01 03                 ...........
gclocals·db7e3e207db6753e4226466f2f4a02f1 SRODATA dupok size=13
	0x0000 05 00 00 00 03 00 00 00 00 04 05 01 03           .............
gclocals·09cf9819fc716118c209c2d2155a3632 SRODATA dupok size=10
	0x0000 02 00 00 00 02 00 00 00 02 00                    ..........
gclocals·568470801006e5c0dc3947ea998fe279 SRODATA dupok size=10
	0x0000 02 00 00 00 02 00 00 00 00 02                    ..........
gclocals·2589ca35330fc0fce83503f4569854a0 SRODATA dupok size=10
	0x0000 02 00 00 00 02 00 00 00 00 00                    ..........
gclocals·fdbf1f5761f6d17e8ae3f0aaecb6a3c5 SRODATA dupok size=11
	0x0000 03 00 00 00 02 00 00 00 03 02 00                 ...........
